ARM GAS  /tmp/cc3UYY3W.s 			page 1


   1              		.cpu cortex-m3
   2              		.arch armv7-m
   3              		.fpu softvfp
   4              		.eabi_attribute 20, 1
   5              		.eabi_attribute 21, 1
   6              		.eabi_attribute 23, 3
   7              		.eabi_attribute 24, 1
   8              		.eabi_attribute 25, 1
   9              		.eabi_attribute 26, 1
  10              		.eabi_attribute 30, 1
  11              		.eabi_attribute 34, 1
  12              		.eabi_attribute 18, 4
  13              		.file	"comm.c"
  14              		.text
  15              	.Ltext0:
  16              		.cfi_sections	.debug_frame
  17              		.file 1 "APP/comm.c"
  18              		.section	.text.COMM_Init,"ax",%progbits
  19              		.align	1
  20              		.global	COMM_Init
  21              		.syntax unified
  22              		.thumb
  23              		.thumb_func
  25              	COMM_Init:
  26              	.LFB65:
   1:APP/comm.c    **** #include "comm.h"
   2:APP/comm.c    **** #include "protocol.h"
   3:APP/comm.c    **** #include "LoRa.h"
   4:APP/comm.c    **** #include "../Core/Inc/main.h"
   5:APP/comm.c    **** 
   6:APP/comm.c    **** extern SPI_HandleTypeDef hspi1;
   7:APP/comm.c    **** 
   8:APP/comm.c    **** /* LoRa instance */
   9:APP/comm.c    **** static LoRa lora;
  10:APP/comm.c    **** 
  11:APP/comm.c    **** /* RX state */
  12:APP/comm.c    **** static CommPacket_t rx_pkt;
  13:APP/comm.c    **** static bool rx_ready = false;
  14:APP/comm.c    **** 
  15:APP/comm.c    **** void COMM_Init(void)
  16:APP/comm.c    **** {
  27              		.loc 1 16 1 view -0
  28              		.cfi_startproc
  29              		@ args = 0, pretend = 0, frame = 0
  30              		@ frame_needed = 0, uses_anonymous_args = 0
  31 0000 10B5     		push	{r4, lr}
  32              	.LCFI0:
  33              		.cfi_def_cfa_offset 8
  34              		.cfi_offset 4, -8
  35              		.cfi_offset 14, -4
  17:APP/comm.c    **** lora.CS_port		= NSS_GPIO_Port;
  36              		.loc 1 17 1 view .LVU1
  37              		.loc 1 17 15 is_stmt 0 view .LVU2
  38 0002 0A4C     		ldr	r4, .L3
  39 0004 0A4B     		ldr	r3, .L3+4
  40 0006 2360     		str	r3, [r4]
  18:APP/comm.c    **** lora.CS_pin		= NSS_Pin;
ARM GAS  /tmp/cc3UYY3W.s 			page 2


  41              		.loc 1 18 1 is_stmt 1 view .LVU3
  42              		.loc 1 18 14 is_stmt 0 view .LVU4
  43 0008 1022     		movs	r2, #16
  44 000a A280     		strh	r2, [r4, #4]	@ movhi
  19:APP/comm.c    **** lora.reset_port		= LoRa_RST_GPIO_Port;
  45              		.loc 1 19 1 is_stmt 1 view .LVU5
  46              		.loc 1 19 18 is_stmt 0 view .LVU6
  47 000c A360     		str	r3, [r4, #8]
  20:APP/comm.c    **** lora.reset_pin		= LoRa_RST_Pin;
  48              		.loc 1 20 1 is_stmt 1 view .LVU7
  49              		.loc 1 20 17 is_stmt 0 view .LVU8
  50 000e 4FF48072 		mov	r2, #256
  51 0012 A281     		strh	r2, [r4, #12]	@ movhi
  21:APP/comm.c    **** lora.DIO0_port		= DIO0_GPIO_Port;
  52              		.loc 1 21 1 is_stmt 1 view .LVU9
  53              		.loc 1 21 17 is_stmt 0 view .LVU10
  54 0014 2361     		str	r3, [r4, #16]
  22:APP/comm.c    **** lora.DIO0_pin		= DIO0_Pin;
  55              		.loc 1 22 1 is_stmt 1 view .LVU11
  56              		.loc 1 22 16 is_stmt 0 view .LVU12
  57 0016 0123     		movs	r3, #1
  58 0018 A382     		strh	r3, [r4, #20]	@ movhi
  23:APP/comm.c    **** lora.hSPIx		= &hspi1;
  59              		.loc 1 23 1 is_stmt 1 view .LVU13
  60              		.loc 1 23 13 is_stmt 0 view .LVU14
  61 001a 064B     		ldr	r3, .L3+8
  62 001c A361     		str	r3, [r4, #24]
  24:APP/comm.c    **** 
  25:APP/comm.c    ****     LoRa_init(&lora);
  63              		.loc 1 25 5 is_stmt 1 view .LVU15
  64 001e 2046     		mov	r0, r4
  65 0020 FFF7FEFF 		bl	LoRa_init
  66              	.LVL0:
  26:APP/comm.c    ****     LoRa_startReceiving(&lora);
  67              		.loc 1 26 5 view .LVU16
  68 0024 2046     		mov	r0, r4
  69 0026 FFF7FEFF 		bl	LoRa_startReceiving
  70              	.LVL1:
  27:APP/comm.c    **** }
  71              		.loc 1 27 1 is_stmt 0 view .LVU17
  72 002a 10BD     		pop	{r4, pc}
  73              	.L4:
  74              		.align	2
  75              	.L3:
  76 002c 00000000 		.word	lora
  77 0030 00080140 		.word	1073809408
  78 0034 00000000 		.word	hspi1
  79              		.cfi_endproc
  80              	.LFE65:
  82              		.section	.text.COMM_Process,"ax",%progbits
  83              		.align	1
  84              		.global	COMM_Process
  85              		.syntax unified
  86              		.thumb
  87              		.thumb_func
  89              	COMM_Process:
  90              	.LFB66:
ARM GAS  /tmp/cc3UYY3W.s 			page 3


  28:APP/comm.c    **** 
  29:APP/comm.c    **** void COMM_Process(void)
  30:APP/comm.c    **** {
  91              		.loc 1 30 1 is_stmt 1 view -0
  92              		.cfi_startproc
  93              		@ args = 0, pretend = 0, frame = 32
  94              		@ frame_needed = 0, uses_anonymous_args = 0
  95 0000 10B5     		push	{r4, lr}
  96              	.LCFI1:
  97              		.cfi_def_cfa_offset 8
  98              		.cfi_offset 4, -8
  99              		.cfi_offset 14, -4
 100 0002 8AB0     		sub	sp, sp, #40
 101              	.LCFI2:
 102              		.cfi_def_cfa_offset 48
  31:APP/comm.c    ****     uint8_t buf[32];
 103              		.loc 1 31 5 view .LVU19
  32:APP/comm.c    ****     uint8_t len = LoRa_receive(&lora, buf, sizeof(buf));
 104              		.loc 1 32 5 view .LVU20
 105              		.loc 1 32 19 is_stmt 0 view .LVU21
 106 0004 2022     		movs	r2, #32
 107 0006 02A9     		add	r1, sp, #8
 108 0008 1548     		ldr	r0, .L14
 109 000a FFF7FEFF 		bl	LoRa_receive
 110              	.LVL2:
  33:APP/comm.c    **** 
  34:APP/comm.c    ****     if (len == 0)
 111              		.loc 1 34 5 is_stmt 1 view .LVU22
 112              		.loc 1 34 8 is_stmt 0 view .LVU23
 113 000e 08B9     		cbnz	r0, .L11
 114              	.LVL3:
 115              	.L5:
  35:APP/comm.c    ****         return;
  36:APP/comm.c    **** 
  37:APP/comm.c    ****     ProtocolPacketType_t t = PROTOCOL_GetType(buf);
  38:APP/comm.c    **** 
  39:APP/comm.c    ****     if (t == PKT_LOCATION)
  40:APP/comm.c    ****     {
  41:APP/comm.c    ****         if (PROTOCOL_DecodeLocation(buf, len,
  42:APP/comm.c    ****                                     &rx_pkt.latitude,
  43:APP/comm.c    ****                                     &rx_pkt.longitude,
  44:APP/comm.c    ****                                     &rx_pkt.sender_id))
  45:APP/comm.c    ****         {
  46:APP/comm.c    ****             rx_pkt.type = COMM_LOCATION;
  47:APP/comm.c    ****             rx_ready = true;
  48:APP/comm.c    ****         }
  49:APP/comm.c    ****     }
  50:APP/comm.c    ****     else if (t == PKT_SCAN_REQUEST)
  51:APP/comm.c    ****     {
  52:APP/comm.c    ****         rx_pkt.type = COMM_SCAN_REQUEST;
  53:APP/comm.c    ****         rx_pkt.sender_id = buf[1];
  54:APP/comm.c    ****         rx_ready = true;
  55:APP/comm.c    ****     }
  56:APP/comm.c    **** 
  57:APP/comm.c    ****     LoRa_startReceiving(&lora);
  58:APP/comm.c    **** }
 116              		.loc 1 58 1 view .LVU24
ARM GAS  /tmp/cc3UYY3W.s 			page 4


 117 0010 0AB0     		add	sp, sp, #40
 118              	.LCFI3:
 119              		.cfi_remember_state
 120              		.cfi_def_cfa_offset 8
 121              		@ sp needed
 122 0012 10BD     		pop	{r4, pc}
 123              	.LVL4:
 124              	.L11:
 125              	.LCFI4:
 126              		.cfi_restore_state
 127              		.loc 1 58 1 view .LVU25
 128 0014 0446     		mov	r4, r0
  37:APP/comm.c    **** 
 129              		.loc 1 37 5 is_stmt 1 view .LVU26
  37:APP/comm.c    **** 
 130              		.loc 1 37 30 is_stmt 0 view .LVU27
 131 0016 02A8     		add	r0, sp, #8
 132              	.LVL5:
  37:APP/comm.c    **** 
 133              		.loc 1 37 30 view .LVU28
 134 0018 FFF7FEFF 		bl	PROTOCOL_GetType
 135              	.LVL6:
  39:APP/comm.c    ****     {
 136              		.loc 1 39 5 is_stmt 1 view .LVU29
  39:APP/comm.c    ****     {
 137              		.loc 1 39 8 is_stmt 0 view .LVU30
 138 001c 0128     		cmp	r0, #1
 139 001e 05D0     		beq	.L12
  50:APP/comm.c    ****     {
 140              		.loc 1 50 10 is_stmt 1 view .LVU31
  50:APP/comm.c    ****     {
 141              		.loc 1 50 13 is_stmt 0 view .LVU32
 142 0020 0228     		cmp	r0, #2
 143 0022 13D0     		beq	.L13
 144              	.LVL7:
 145              	.L9:
  57:APP/comm.c    **** }
 146              		.loc 1 57 5 is_stmt 1 view .LVU33
 147 0024 0E48     		ldr	r0, .L14
 148 0026 FFF7FEFF 		bl	LoRa_startReceiving
 149              	.LVL8:
 150 002a F1E7     		b	.L5
 151              	.LVL9:
 152              	.L12:
  41:APP/comm.c    ****                                     &rx_pkt.latitude,
 153              		.loc 1 41 9 view .LVU34
  41:APP/comm.c    ****                                     &rx_pkt.latitude,
 154              		.loc 1 41 13 is_stmt 0 view .LVU35
 155 002c 0D4B     		ldr	r3, .L14+4
 156 002e 1A1D     		adds	r2, r3, #4
 157 0030 0092     		str	r2, [sp]
 158 0032 1A1F     		subs	r2, r3, #4
 159 0034 2146     		mov	r1, r4
 160 0036 02A8     		add	r0, sp, #8
 161              	.LVL10:
  41:APP/comm.c    ****                                     &rx_pkt.latitude,
 162              		.loc 1 41 13 view .LVU36
ARM GAS  /tmp/cc3UYY3W.s 			page 5


 163 0038 FFF7FEFF 		bl	PROTOCOL_DecodeLocation
 164              	.LVL11:
  41:APP/comm.c    ****                                     &rx_pkt.latitude,
 165              		.loc 1 41 12 discriminator 1 view .LVU37
 166 003c 0028     		cmp	r0, #0
 167 003e F1D0     		beq	.L9
  46:APP/comm.c    ****             rx_ready = true;
 168              		.loc 1 46 13 is_stmt 1 view .LVU38
  46:APP/comm.c    ****             rx_ready = true;
 169              		.loc 1 46 25 is_stmt 0 view .LVU39
 170 0040 0123     		movs	r3, #1
 171 0042 094A     		ldr	r2, .L14+8
 172 0044 1370     		strb	r3, [r2]
  47:APP/comm.c    ****         }
 173              		.loc 1 47 13 is_stmt 1 view .LVU40
  47:APP/comm.c    ****         }
 174              		.loc 1 47 22 is_stmt 0 view .LVU41
 175 0046 094A     		ldr	r2, .L14+12
 176 0048 1370     		strb	r3, [r2]
 177 004a EBE7     		b	.L9
 178              	.LVL12:
 179              	.L13:
  52:APP/comm.c    ****         rx_pkt.sender_id = buf[1];
 180              		.loc 1 52 9 is_stmt 1 view .LVU42
  52:APP/comm.c    ****         rx_pkt.sender_id = buf[1];
 181              		.loc 1 52 21 is_stmt 0 view .LVU43
 182 004c 064B     		ldr	r3, .L14+8
 183 004e 0222     		movs	r2, #2
 184 0050 1A70     		strb	r2, [r3]
  53:APP/comm.c    ****         rx_ready = true;
 185              		.loc 1 53 9 is_stmt 1 view .LVU44
  53:APP/comm.c    ****         rx_ready = true;
 186              		.loc 1 53 31 is_stmt 0 view .LVU45
 187 0052 9DF80920 		ldrb	r2, [sp, #9]	@ zero_extendqisi2
  53:APP/comm.c    ****         rx_ready = true;
 188              		.loc 1 53 26 view .LVU46
 189 0056 1A73     		strb	r2, [r3, #12]
  54:APP/comm.c    ****     }
 190              		.loc 1 54 9 is_stmt 1 view .LVU47
  54:APP/comm.c    ****     }
 191              		.loc 1 54 18 is_stmt 0 view .LVU48
 192 0058 044B     		ldr	r3, .L14+12
 193 005a 0122     		movs	r2, #1
 194 005c 1A70     		strb	r2, [r3]
 195 005e E1E7     		b	.L9
 196              	.L15:
 197              		.align	2
 198              	.L14:
 199 0060 00000000 		.word	lora
 200 0064 08000000 		.word	rx_pkt+8
 201 0068 00000000 		.word	rx_pkt
 202 006c 00000000 		.word	rx_ready
 203              		.cfi_endproc
 204              	.LFE66:
 206              		.section	.text.COMM_SendLocation,"ax",%progbits
 207              		.align	1
 208              		.global	COMM_SendLocation
ARM GAS  /tmp/cc3UYY3W.s 			page 6


 209              		.syntax unified
 210              		.thumb
 211              		.thumb_func
 213              	COMM_SendLocation:
 214              	.LVL13:
 215              	.LFB67:
  59:APP/comm.c    **** 
  60:APP/comm.c    **** bool COMM_SendLocation(float lat, float lon, uint8_t id)
  61:APP/comm.c    **** {
 216              		.loc 1 61 1 is_stmt 1 view -0
 217              		.cfi_startproc
 218              		@ args = 0, pretend = 0, frame = 32
 219              		@ frame_needed = 0, uses_anonymous_args = 0
 220              		.loc 1 61 1 is_stmt 0 view .LVU50
 221 0000 10B5     		push	{r4, lr}
 222              	.LCFI5:
 223              		.cfi_def_cfa_offset 8
 224              		.cfi_offset 4, -8
 225              		.cfi_offset 14, -4
 226 0002 88B0     		sub	sp, sp, #32
 227              	.LCFI6:
 228              		.cfi_def_cfa_offset 40
 229 0004 1346     		mov	r3, r2
  62:APP/comm.c    ****     uint8_t buf[32];
 230              		.loc 1 62 5 is_stmt 1 view .LVU51
  63:APP/comm.c    ****     uint8_t len = PROTOCOL_EncodeLocation(buf, lat, lon, id);
 231              		.loc 1 63 5 view .LVU52
 232              		.loc 1 63 19 is_stmt 0 view .LVU53
 233 0006 0A46     		mov	r2, r1
 234              	.LVL14:
 235              		.loc 1 63 19 view .LVU54
 236 0008 0146     		mov	r1, r0
 237              	.LVL15:
 238              		.loc 1 63 19 view .LVU55
 239 000a 6846     		mov	r0, sp
 240              	.LVL16:
 241              		.loc 1 63 19 view .LVU56
 242 000c FFF7FEFF 		bl	PROTOCOL_EncodeLocation
 243              	.LVL17:
 244              		.loc 1 63 19 view .LVU57
 245 0010 0246     		mov	r2, r0
 246              	.LVL18:
  64:APP/comm.c    **** 
  65:APP/comm.c    ****     return (LoRa_transmit(&lora, buf, len, 100) == 1);
 247              		.loc 1 65 5 is_stmt 1 view .LVU58
 248              		.loc 1 65 13 is_stmt 0 view .LVU59
 249 0012 6423     		movs	r3, #100
 250 0014 6946     		mov	r1, sp
 251 0016 0448     		ldr	r0, .L18
 252 0018 FFF7FEFF 		bl	LoRa_transmit
 253              	.LVL19:
  66:APP/comm.c    **** }
 254              		.loc 1 66 1 view .LVU60
 255 001c 0128     		cmp	r0, #1
 256 001e 14BF     		ite	ne
 257 0020 0020     		movne	r0, #0
 258 0022 0120     		moveq	r0, #1
ARM GAS  /tmp/cc3UYY3W.s 			page 7


 259 0024 08B0     		add	sp, sp, #32
 260              	.LCFI7:
 261              		.cfi_def_cfa_offset 8
 262              		@ sp needed
 263 0026 10BD     		pop	{r4, pc}
 264              	.L19:
 265              		.align	2
 266              	.L18:
 267 0028 00000000 		.word	lora
 268              		.cfi_endproc
 269              	.LFE67:
 271              		.section	.text.COMM_SendScanRequest,"ax",%progbits
 272              		.align	1
 273              		.global	COMM_SendScanRequest
 274              		.syntax unified
 275              		.thumb
 276              		.thumb_func
 278              	COMM_SendScanRequest:
 279              	.LVL20:
 280              	.LFB68:
  67:APP/comm.c    **** 
  68:APP/comm.c    **** bool COMM_SendScanRequest(uint8_t id)
  69:APP/comm.c    **** {
 281              		.loc 1 69 1 is_stmt 1 view -0
 282              		.cfi_startproc
 283              		@ args = 0, pretend = 0, frame = 8
 284              		@ frame_needed = 0, uses_anonymous_args = 0
 285              		.loc 1 69 1 is_stmt 0 view .LVU62
 286 0000 10B5     		push	{r4, lr}
 287              	.LCFI8:
 288              		.cfi_def_cfa_offset 8
 289              		.cfi_offset 4, -8
 290              		.cfi_offset 14, -4
 291 0002 82B0     		sub	sp, sp, #8
 292              	.LCFI9:
 293              		.cfi_def_cfa_offset 16
 294 0004 0146     		mov	r1, r0
  70:APP/comm.c    ****     uint8_t buf[8];
 295              		.loc 1 70 5 is_stmt 1 view .LVU63
  71:APP/comm.c    ****     uint8_t len = PROTOCOL_EncodeScanRequest(buf, id);
 296              		.loc 1 71 5 view .LVU64
 297              		.loc 1 71 19 is_stmt 0 view .LVU65
 298 0006 6846     		mov	r0, sp
 299              	.LVL21:
 300              		.loc 1 71 19 view .LVU66
 301 0008 FFF7FEFF 		bl	PROTOCOL_EncodeScanRequest
 302              	.LVL22:
 303              		.loc 1 71 19 view .LVU67
 304 000c 0246     		mov	r2, r0
 305              	.LVL23:
  72:APP/comm.c    **** 
  73:APP/comm.c    ****     return (LoRa_transmit(&lora, buf, len, 100) == 1);
 306              		.loc 1 73 5 is_stmt 1 view .LVU68
 307              		.loc 1 73 13 is_stmt 0 view .LVU69
 308 000e 6423     		movs	r3, #100
 309 0010 6946     		mov	r1, sp
 310 0012 0448     		ldr	r0, .L22
ARM GAS  /tmp/cc3UYY3W.s 			page 8


 311 0014 FFF7FEFF 		bl	LoRa_transmit
 312              	.LVL24:
  74:APP/comm.c    **** }
 313              		.loc 1 74 1 view .LVU70
 314 0018 0128     		cmp	r0, #1
 315 001a 14BF     		ite	ne
 316 001c 0020     		movne	r0, #0
 317 001e 0120     		moveq	r0, #1
 318 0020 02B0     		add	sp, sp, #8
 319              	.LCFI10:
 320              		.cfi_def_cfa_offset 8
 321              		@ sp needed
 322 0022 10BD     		pop	{r4, pc}
 323              	.L23:
 324              		.align	2
 325              	.L22:
 326 0024 00000000 		.word	lora
 327              		.cfi_endproc
 328              	.LFE68:
 330              		.section	.text.COMM_HasPacket,"ax",%progbits
 331              		.align	1
 332              		.global	COMM_HasPacket
 333              		.syntax unified
 334              		.thumb
 335              		.thumb_func
 337              	COMM_HasPacket:
 338              	.LFB69:
  75:APP/comm.c    **** 
  76:APP/comm.c    **** bool COMM_HasPacket(void)
  77:APP/comm.c    **** {
 339              		.loc 1 77 1 is_stmt 1 view -0
 340              		.cfi_startproc
 341              		@ args = 0, pretend = 0, frame = 0
 342              		@ frame_needed = 0, uses_anonymous_args = 0
 343              		@ link register save eliminated.
  78:APP/comm.c    ****     return rx_ready;
 344              		.loc 1 78 5 view .LVU72
  79:APP/comm.c    **** }
 345              		.loc 1 79 1 is_stmt 0 view .LVU73
 346 0000 014B     		ldr	r3, .L25
 347 0002 1878     		ldrb	r0, [r3]	@ zero_extendqisi2
 348 0004 7047     		bx	lr
 349              	.L26:
 350 0006 00BF     		.align	2
 351              	.L25:
 352 0008 00000000 		.word	rx_ready
 353              		.cfi_endproc
 354              	.LFE69:
 356              		.section	.text.COMM_GetPacket,"ax",%progbits
 357              		.align	1
 358              		.global	COMM_GetPacket
 359              		.syntax unified
 360              		.thumb
 361              		.thumb_func
 363              	COMM_GetPacket:
 364              	.LVL25:
 365              	.LFB70:
ARM GAS  /tmp/cc3UYY3W.s 			page 9


  80:APP/comm.c    **** 
  81:APP/comm.c    **** bool COMM_GetPacket(CommPacket_t *pkt)
  82:APP/comm.c    **** {
 366              		.loc 1 82 1 is_stmt 1 view -0
 367              		.cfi_startproc
 368              		@ args = 0, pretend = 0, frame = 0
 369              		@ frame_needed = 0, uses_anonymous_args = 0
 370              		@ link register save eliminated.
 371              		.loc 1 82 1 is_stmt 0 view .LVU75
 372 0000 30B4     		push	{r4, r5}
 373              	.LCFI11:
 374              		.cfi_def_cfa_offset 8
 375              		.cfi_offset 4, -8
 376              		.cfi_offset 5, -4
  83:APP/comm.c    ****     if (!rx_ready || pkt == NULL)
 377              		.loc 1 83 5 is_stmt 1 view .LVU76
 378              		.loc 1 83 9 is_stmt 0 view .LVU77
 379 0002 084B     		ldr	r3, .L31
 380 0004 1D78     		ldrb	r5, [r3]	@ zero_extendqisi2
 381              		.loc 1 83 8 view .LVU78
 382 0006 45B1     		cbz	r5, .L28
 383 0008 0446     		mov	r4, r0
 384              		.loc 1 83 19 discriminator 1 view .LVU79
 385 000a 48B1     		cbz	r0, .L29
  84:APP/comm.c    ****         return false;
  85:APP/comm.c    **** 
  86:APP/comm.c    ****     *pkt = rx_pkt;
 386              		.loc 1 86 5 is_stmt 1 view .LVU80
 387              		.loc 1 86 10 is_stmt 0 view .LVU81
 388 000c 064B     		ldr	r3, .L31+4
 389 000e 0FCB     		ldm	r3, {r0, r1, r2, r3}
 390              	.LVL26:
 391              		.loc 1 86 10 view .LVU82
 392 0010 84E80F00 		stm	r4, {r0, r1, r2, r3}
  87:APP/comm.c    ****     rx_ready = false;
 393              		.loc 1 87 5 is_stmt 1 view .LVU83
 394              		.loc 1 87 14 is_stmt 0 view .LVU84
 395 0014 034B     		ldr	r3, .L31
 396 0016 0022     		movs	r2, #0
 397 0018 1A70     		strb	r2, [r3]
  88:APP/comm.c    ****     return true;
 398              		.loc 1 88 5 is_stmt 1 view .LVU85
 399              	.LVL27:
 400              	.L28:
  89:APP/comm.c    **** }
 401              		.loc 1 89 1 is_stmt 0 view .LVU86
 402 001a 2846     		mov	r0, r5
 403 001c 30BC     		pop	{r4, r5}
 404              	.LCFI12:
 405              		.cfi_remember_state
 406              		.cfi_restore 5
 407              		.cfi_restore 4
 408              		.cfi_def_cfa_offset 0
 409 001e 7047     		bx	lr
 410              	.LVL28:
 411              	.L29:
 412              	.LCFI13:
ARM GAS  /tmp/cc3UYY3W.s 			page 10


 413              		.cfi_restore_state
  84:APP/comm.c    **** 
 414              		.loc 1 84 16 view .LVU87
 415 0020 0025     		movs	r5, #0
 416 0022 FAE7     		b	.L28
 417              	.L32:
 418              		.align	2
 419              	.L31:
 420 0024 00000000 		.word	rx_ready
 421 0028 00000000 		.word	rx_pkt
 422              		.cfi_endproc
 423              	.LFE70:
 425              		.section	.bss.rx_ready,"aw",%nobits
 428              	rx_ready:
 429 0000 00       		.space	1
 430              		.section	.bss.rx_pkt,"aw",%nobits
 431              		.align	2
 434              	rx_pkt:
 435 0000 00000000 		.space	16
 435      00000000 
 435      00000000 
 435      00000000 
 436              		.section	.bss.lora,"aw",%nobits
 437              		.align	2
 440              	lora:
 441 0000 00000000 		.space	44
 441      00000000 
 441      00000000 
 441      00000000 
 441      00000000 
 442              		.text
 443              	.Letext0:
 444              		.file 2 "/usr/arm-none-eabi/include/machine/_default_types.h"
 445              		.file 3 "/usr/arm-none-eabi/include/sys/_stdint.h"
 446              		.file 4 "APP/comm.h"
 447              		.file 5 "APP/protocol.h"
 448              		.file 6 "Drivers/CMSIS/Device/ST/STM32F1xx/Include/stm32f103xb.h"
 449              		.file 7 "Drivers/STM32F1xx_HAL_Driver/Inc/stm32f1xx_hal_def.h"
 450              		.file 8 "Drivers/STM32F1xx_HAL_Driver/Inc/stm32f1xx_hal_dma.h"
 451              		.file 9 "Drivers/STM32F1xx_HAL_Driver/Inc/stm32f1xx_hal_spi.h"
 452              		.file 10 "Drivers/LoRa/LoRa.h"
ARM GAS  /tmp/cc3UYY3W.s 			page 11

