ARM GAS  /tmp/ccZzrLig.s 			page 1


   1              		.cpu cortex-m3
   2              		.arch armv7-m
   3              		.fpu softvfp
   4              		.eabi_attribute 20, 1
   5              		.eabi_attribute 21, 1
   6              		.eabi_attribute 23, 3
   7              		.eabi_attribute 24, 1
   8              		.eabi_attribute 25, 1
   9              		.eabi_attribute 26, 1
  10              		.eabi_attribute 30, 1
  11              		.eabi_attribute 34, 1
  12              		.eabi_attribute 18, 4
  13              		.file	"main.c"
  14              		.text
  15              	.Ltext0:
  16              		.cfi_sections	.debug_frame
  17              		.file 1 "Core/Src/main.c"
  18              		.section	.rodata.GPS_display_status.0.str1.4,"aMS",%progbits,1
  19              		.align	2
  20              	.LC0:
  21 0000 4750533A 		.ascii	"GPS: no fix\000"
  21      206E6F20 
  21      66697800 
  22              		.align	2
  23              	.LC1:
  24 000c 47505320 		.ascii	"GPS OK!\000"
  24      4F4B2100 
  25              		.align	2
  26              	.LC2:
  27 0014 47505320 		.ascii	"GPS not found!\000"
  27      6E6F7420 
  27      666F756E 
  27      642100
  28              		.section	.text.GPS_display_status.0,"ax",%progbits
  29              		.align	1
  30              		.syntax unified
  31              		.thumb
  32              		.thumb_func
  34              	GPS_display_status.0:
  35              	.LVL0:
  36              	.LFB70:
   1:Core/Src/main.c **** /* USER CODE BEGIN Header */
   2:Core/Src/main.c **** /**
   3:Core/Src/main.c ****   ******************************************************************************
   4:Core/Src/main.c ****   * @file           : main.c
   5:Core/Src/main.c ****   * @brief          : Main program body
   6:Core/Src/main.c ****   ******************************************************************************
   7:Core/Src/main.c ****   * @attention
   8:Core/Src/main.c ****   *
   9:Core/Src/main.c ****   * Copyright (c) 2025 STMicroelectronics.
  10:Core/Src/main.c ****   * All rights reserved.
  11:Core/Src/main.c ****   *
  12:Core/Src/main.c ****   * This software is licensed under terms that can be found in the LICENSE file
  13:Core/Src/main.c ****   * in the root directory of this software component.
  14:Core/Src/main.c ****   * If no LICENSE file comes with this software, it is provided AS-IS.
  15:Core/Src/main.c ****   *
  16:Core/Src/main.c ****   ******************************************************************************
ARM GAS  /tmp/ccZzrLig.s 			page 2


  17:Core/Src/main.c ****   */
  18:Core/Src/main.c **** /* USER CODE END Header */
  19:Core/Src/main.c **** /* Includes ------------------------------------------------------------------*/
  20:Core/Src/main.c **** #include "main.h"
  21:Core/Src/main.c **** #include "i2c.h"
  22:Core/Src/main.c **** #include "spi.h"
  23:Core/Src/main.c **** #include "usart.h"
  24:Core/Src/main.c **** #include "gpio.h"
  25:Core/Src/main.c **** 
  26:Core/Src/main.c **** /* Private includes ----------------------------------------------------------*/
  27:Core/Src/main.c **** /* USER CODE BEGIN Includes */
  28:Core/Src/main.c **** #include "LoRa.h"
  29:Core/Src/main.c **** #include "gps.h"
  30:Core/Src/main.c **** #include "ssd1306.h"
  31:Core/Src/main.c **** #include "ssd1306_tests.h"
  32:Core/Src/main.c **** #include "ssd1306_fonts.h"
  33:Core/Src/main.c **** #include <string.h>
  34:Core/Src/main.c **** #include <stdio.h>
  35:Core/Src/main.c **** 
  36:Core/Src/main.c **** #include "../APP/comm.h"
  37:Core/Src/main.c **** #include "../APP/protocol.h"
  38:Core/Src/main.c **** #include "../APP/scan.h"
  39:Core/Src/main.c **** /* USER CODE END Includes */
  40:Core/Src/main.c **** 
  41:Core/Src/main.c **** /* Private typedef -----------------------------------------------------------*/
  42:Core/Src/main.c **** /* USER CODE BEGIN PTD */
  43:Core/Src/main.c **** 
  44:Core/Src/main.c **** /* USER CODE END PTD */
  45:Core/Src/main.c **** 
  46:Core/Src/main.c **** /* Private define ------------------------------------------------------------*/
  47:Core/Src/main.c **** /* USER CODE BEGIN PD */
  48:Core/Src/main.c **** 
  49:Core/Src/main.c **** /* USER CODE END PD */
  50:Core/Src/main.c **** 
  51:Core/Src/main.c **** /* Private macro -------------------------------------------------------------*/
  52:Core/Src/main.c **** /* USER CODE BEGIN PM */
  53:Core/Src/main.c **** 
  54:Core/Src/main.c **** /* USER CODE END PM */
  55:Core/Src/main.c **** 
  56:Core/Src/main.c **** /* Private variables ---------------------------------------------------------*/
  57:Core/Src/main.c **** 
  58:Core/Src/main.c **** /* USER CODE BEGIN PV */
  59:Core/Src/main.c **** // i2c for oled
  60:Core/Src/main.c **** 
  61:Core/Src/main.c **** // declaring the objects
  62:Core/Src/main.c **** LoRa lora;
  63:Core/Src/main.c **** GPS_t gps;
  64:Core/Src/main.c **** 
  65:Core/Src/main.c **** 
  66:Core/Src/main.c **** volatile bool	scan_btn_pressed = false;
  67:Core/Src/main.c **** volatile bool	send_btn_pressed = false;
  68:Core/Src/main.c **** 
  69:Core/Src/main.c **** /* USER CODE END PV */
  70:Core/Src/main.c **** 
  71:Core/Src/main.c **** /* Private function prototypes -----------------------------------------------*/
  72:Core/Src/main.c **** void SystemClock_Config(void);
  73:Core/Src/main.c **** /* USER CODE BEGIN PFP */
ARM GAS  /tmp/ccZzrLig.s 			page 3


  74:Core/Src/main.c **** 
  75:Core/Src/main.c **** /* USER CODE END PFP */
  76:Core/Src/main.c **** 
  77:Core/Src/main.c **** /* Private user code ---------------------------------------------------------*/
  78:Core/Src/main.c **** /* USER CODE BEGIN 0 */
  79:Core/Src/main.c **** 
  80:Core/Src/main.c **** void HAL_UART_RxCpltCallback(UART_HandleTypeDef *huart)
  81:Core/Src/main.c **** {
  82:Core/Src/main.c **** 	if(huart == &huart1) GPS_UART_CallBack();
  83:Core/Src/main.c **** }
  84:Core/Src/main.c **** 
  85:Core/Src/main.c **** 
  86:Core/Src/main.c **** /* USER CODE END 0 */
  87:Core/Src/main.c **** 
  88:Core/Src/main.c **** /**
  89:Core/Src/main.c ****   * @brief  The application entry point.
  90:Core/Src/main.c ****   * @retval int
  91:Core/Src/main.c ****   */
  92:Core/Src/main.c **** int main(void)
  93:Core/Src/main.c **** {
  94:Core/Src/main.c **** 
  95:Core/Src/main.c ****   /* USER CODE BEGIN 1 */
  96:Core/Src/main.c **** 
  97:Core/Src/main.c ****   /* USER CODE END 1 */
  98:Core/Src/main.c **** 
  99:Core/Src/main.c ****   /* MCU Configuration--------------------------------------------------------*/
 100:Core/Src/main.c **** 
 101:Core/Src/main.c ****   /* Reset of all peripherals, Initializes the Flash interface and the Systick. */
 102:Core/Src/main.c ****   HAL_Init();
 103:Core/Src/main.c **** 
 104:Core/Src/main.c ****   /* USER CODE BEGIN Init */
 105:Core/Src/main.c **** 
 106:Core/Src/main.c ****   /* USER CODE END Init */
 107:Core/Src/main.c **** 
 108:Core/Src/main.c ****   /* Configure the system clock */
 109:Core/Src/main.c ****   SystemClock_Config();
 110:Core/Src/main.c **** 
 111:Core/Src/main.c ****   /* USER CODE BEGIN SysInit */
 112:Core/Src/main.c **** 
 113:Core/Src/main.c ****   /* USER CODE END SysInit */
 114:Core/Src/main.c **** 
 115:Core/Src/main.c ****   /* Initialize all configured peripherals */
 116:Core/Src/main.c ****   MX_GPIO_Init();
 117:Core/Src/main.c ****   MX_USART2_UART_Init();
 118:Core/Src/main.c ****   MX_SPI1_Init();
 119:Core/Src/main.c ****   MX_I2C1_Init();
 120:Core/Src/main.c ****   MX_USART1_UART_Init();
 121:Core/Src/main.c ****   /* USER CODE BEGIN 2 */
 122:Core/Src/main.c **** 
 123:Core/Src/main.c **** 
 124:Core/Src/main.c **** // ======================OLED SETUP =============================
 125:Core/Src/main.c **** 
 126:Core/Src/main.c **** // Initialize the display
 127:Core/Src/main.c **** ssd1306_Init();
 128:Core/Src/main.c ****     
 129:Core/Src/main.c **** // clear the display buffer
 130:Core/Src/main.c **** ssd1306_Fill(Black);
ARM GAS  /tmp/ccZzrLig.s 			page 4


 131:Core/Src/main.c ****     
 132:Core/Src/main.c **** // set cursor position and write text
 133:Core/Src/main.c **** ssd1306_SetCursor(16, 16);
 134:Core/Src/main.c **** ssd1306_WriteString("Startup...", Font_11x18, White);
 135:Core/Src/main.c **** 
 136:Core/Src/main.c **** // update the display
 137:Core/Src/main.c **** ssd1306_UpdateScreen();
 138:Core/Src/main.c **** HAL_Delay(500);
 139:Core/Src/main.c **** ssd1306_Fill(Black);
 140:Core/Src/main.c **** 
 141:Core/Src/main.c **** // ====================== LORA SETUP ==========================
 142:Core/Src/main.c **** // configuring SPI pins for lora
 143:Core/Src/main.c **** 
 144:Core/Src/main.c **** lora.CS_port		= NSS_GPIO_Port;
 145:Core/Src/main.c **** lora.CS_pin		= NSS_Pin;
 146:Core/Src/main.c **** lora.reset_port		= LoRa_RST_GPIO_Port;
 147:Core/Src/main.c **** lora.reset_pin		= LoRa_RST_Pin;
 148:Core/Src/main.c **** lora.DIO0_port		= DIO0_GPIO_Port;
 149:Core/Src/main.c **** lora.DIO0_pin		= DIO0_Pin;
 150:Core/Src/main.c **** lora.hSPIx		= &hspi1;
 151:Core/Src/main.c **** 
 152:Core/Src/main.c **** char		send_data[200];
 153:Core/Src/main.c **** uint16_t	status = LoRa_init(&lora);
 154:Core/Src/main.c **** 
 155:Core/Src/main.c **** memset(send_data, 0, 200);
 156:Core/Src/main.c **** 
 157:Core/Src/main.c **** if (status == LORA_OK)
 158:Core/Src/main.c **** 	{
 159:Core/Src/main.c **** 		// whatever
 160:Core/Src/main.c **** 		/*	
 161:Core/Src/main.c **** 		snprintf(send_data, sizeof(send_data), "\n\r LoRa OK! :)");
 162:Core/Src/main.c **** 		LoRa_transmit(&lora, (uint8_t*)send_data, 120, 100);
 163:Core/Src/main.c **** 		HAL_UART_Transmit(&huart1, (uint8_t*)send_data, 200, 200);
 164:Core/Src/main.c **** 		*/
 165:Core/Src/main.c **** 		ssd1306_SetCursor(16, 16);
 166:Core/Src/main.c **** 		ssd1306_WriteString("LoRa OK!", Font_11x18, White);
 167:Core/Src/main.c **** 		ssd1306_UpdateScreen();
 168:Core/Src/main.c **** 		HAL_Delay(500);
 169:Core/Src/main.c **** 	}
 170:Core/Src/main.c **** else if (status == LORA_NOT_FOUND)
 171:Core/Src/main.c **** 	{
 172:Core/Src/main.c **** 		// mcu cant communicate with lora	
 173:Core/Src/main.c **** 		ssd1306_WriteString("LoRa not found, check wiring!", Font_11x18, White);
 174:Core/Src/main.c **** 		ssd1306_UpdateScreen();
 175:Core/Src/main.c **** 		HAL_Delay(500);
 176:Core/Src/main.c **** 	}
 177:Core/Src/main.c **** else if (status == LORA_UNAVAILABLE)
 178:Core/Src/main.c **** 	{
 179:Core/Src/main.c **** 		// setup is not correct
 180:Core/Src/main.c **** 		ssd1306_WriteString("Setup is not correct..", Font_11x18, White);
 181:Core/Src/main.c **** 		ssd1306_UpdateScreen();
 182:Core/Src/main.c **** 		ssd1306_UpdateScreen();
 183:Core/Src/main.c **** 		HAL_Delay(500);
 184:Core/Src/main.c **** 
 185:Core/Src/main.c **** 	}
 186:Core/Src/main.c **** 
 187:Core/Src/main.c **** 
ARM GAS  /tmp/ccZzrLig.s 			page 5


 188:Core/Src/main.c **** lora.frequency      = 434;
 189:Core/Src/main.c **** lora.spredingFactor = SF_9;
 190:Core/Src/main.c **** lora.bandWidth      = BW_250KHz;
 191:Core/Src/main.c **** lora.crcRate        = CR_4_8;
 192:Core/Src/main.c **** lora.power          = POWER_17db;
 193:Core/Src/main.c **** lora.overCurrentProtection = 130;
 194:Core/Src/main.c **** lora.preamble       = 10;
 195:Core/Src/main.c **** 
 196:Core/Src/main.c **** 
 197:Core/Src/main.c **** // ====================== GPS SETUP ==========================
 198:Core/Src/main.c **** GPS_Init();
 199:Core/Src/main.c **** 
 200:Core/Src/main.c **** void GPS_display_status(GPS_t *gps)
 201:Core/Src/main.c **** {
  37              		.loc 1 201 1 view -0
  38              		.cfi_startproc
  39              		@ args = 0, pretend = 0, frame = 0
  40              		@ frame_needed = 0, uses_anonymous_args = 0
  41              		.loc 1 201 1 is_stmt 0 view .LVU1
  42 0000 10B5     		push	{r4, lr}
  43              	.LCFI0:
  44              		.cfi_def_cfa_offset 8
  45              		.cfi_offset 4, -8
  46              		.cfi_offset 14, -4
  47 0002 82B0     		sub	sp, sp, #8
  48              	.LCFI1:
  49              		.cfi_def_cfa_offset 16
  50 0004 0446     		mov	r4, r0
 202:Core/Src/main.c **** 	ssd1306_SetCursor(0, 16); // adjust position as needed
  51              		.loc 1 202 2 is_stmt 1 view .LVU2
  52 0006 1021     		movs	r1, #16
  53 0008 0020     		movs	r0, #0
  54              	.LVL1:
  55              		.loc 1 202 2 is_stmt 0 view .LVU3
  56 000a FFF7FEFF 		bl	ssd1306_SetCursor
  57              	.LVL2:
 203:Core/Src/main.c **** 
 204:Core/Src/main.c **** 	if (gps->lock == 0)
  58              		.loc 1 204 2 is_stmt 1 view .LVU4
  59              		.loc 1 204 9 is_stmt 0 view .LVU5
  60 000e E369     		ldr	r3, [r4, #28]
  61              		.loc 1 204 5 view .LVU6
  62 0010 7BB1     		cbz	r3, .L6
 205:Core/Src/main.c ****     	{
 206:Core/Src/main.c **** 		// GPS module is connected but no fix yet
 207:Core/Src/main.c **** 		ssd1306_WriteString("GPS: no fix", Font_11x18, White);
 208:Core/Src/main.c **** 	}
 209:Core/Src/main.c **** 	else if (gps->lock > 0 && gps->satelites >= 3) 
  63              		.loc 1 209 7 is_stmt 1 view .LVU7
  64              		.loc 1 209 10 is_stmt 0 view .LVU8
  65 0012 002B     		cmp	r3, #0
  66 0014 02DD     		ble	.L4
  67              		.loc 1 209 31 discriminator 1 view .LVU9
  68 0016 236A     		ldr	r3, [r4, #32]
  69              		.loc 1 209 25 discriminator 1 view .LVU10
  70 0018 022B     		cmp	r3, #2
  71 001a 12DC     		bgt	.L7
ARM GAS  /tmp/ccZzrLig.s 			page 6


  72              	.L4:
 210:Core/Src/main.c **** 	{
 211:Core/Src/main.c **** 		// GPS has a valid fix (3+ satellites)
 212:Core/Src/main.c **** 		ssd1306_WriteString("GPS OK!", Font_11x18, White);
 213:Core/Src/main.c **** 	}
 214:Core/Src/main.c **** 	else
 215:Core/Src/main.c **** 	{
 216:Core/Src/main.c **** 		// if GPS string is invalid or module not responding
 217:Core/Src/main.c **** 		ssd1306_WriteString("GPS not found!", Font_11x18, White);	
  73              		.loc 1 217 3 is_stmt 1 view .LVU11
  74 001c 0D4B     		ldr	r3, .L8
  75 001e 0122     		movs	r2, #1
  76 0020 0092     		str	r2, [sp]
  77 0022 0ECB     		ldm	r3, {r1, r2, r3}
  78 0024 0C48     		ldr	r0, .L8+4
  79 0026 FFF7FEFF 		bl	ssd1306_WriteString
  80              	.LVL3:
  81              	.L3:
 218:Core/Src/main.c **** 	}
 219:Core/Src/main.c **** 
 220:Core/Src/main.c ****     ssd1306_UpdateScreen();
  82              		.loc 1 220 5 view .LVU12
  83 002a FFF7FEFF 		bl	ssd1306_UpdateScreen
  84              	.LVL4:
 221:Core/Src/main.c **** }
  85              		.loc 1 221 1 is_stmt 0 view .LVU13
  86 002e 02B0     		add	sp, sp, #8
  87              	.LCFI2:
  88              		.cfi_remember_state
  89              		.cfi_def_cfa_offset 8
  90              		@ sp needed
  91 0030 10BD     		pop	{r4, pc}
  92              	.LVL5:
  93              	.L6:
  94              	.LCFI3:
  95              		.cfi_restore_state
 207:Core/Src/main.c **** 	}
  96              		.loc 1 207 3 is_stmt 1 view .LVU14
  97 0032 084B     		ldr	r3, .L8
  98 0034 0122     		movs	r2, #1
  99 0036 0092     		str	r2, [sp]
 100 0038 0ECB     		ldm	r3, {r1, r2, r3}
 101 003a 0848     		ldr	r0, .L8+8
 102 003c FFF7FEFF 		bl	ssd1306_WriteString
 103              	.LVL6:
 104 0040 F3E7     		b	.L3
 105              	.L7:
 212:Core/Src/main.c **** 	}
 106              		.loc 1 212 3 view .LVU15
 107 0042 044B     		ldr	r3, .L8
 108 0044 0122     		movs	r2, #1
 109 0046 0092     		str	r2, [sp]
 110 0048 0ECB     		ldm	r3, {r1, r2, r3}
 111 004a 0548     		ldr	r0, .L8+12
 112 004c FFF7FEFF 		bl	ssd1306_WriteString
 113              	.LVL7:
 114 0050 EBE7     		b	.L3
ARM GAS  /tmp/ccZzrLig.s 			page 7


 115              	.L9:
 116 0052 00BF     		.align	2
 117              	.L8:
 118 0054 00000000 		.word	Font_11x18
 119 0058 14000000 		.word	.LC2
 120 005c 00000000 		.word	.LC0
 121 0060 0C000000 		.word	.LC1
 122              		.cfi_endproc
 123              	.LFE70:
 125              		.section	.rodata.scan_mode.1.str1.4,"aMS",%progbits,1
 126              		.align	2
 127              	.LC3:
 128 0000 73656E64 		.ascii	"send\000"
 128      00
 129 0005 000000   		.align	2
 130              	.LC4:
 131 0008 7363616E 		.ascii	"scan\000"
 131      00
 132              		.section	.text.scan_mode.1,"ax",%progbits
 133              		.align	1
 134              		.syntax unified
 135              		.thumb
 136              		.thumb_func
 138              	scan_mode.1:
 139              	.LFB72:
 222:Core/Src/main.c **** 
 223:Core/Src/main.c **** char gps_buffer[GPSBUFSIZE];
 224:Core/Src/main.c **** 
 225:Core/Src/main.c **** GPS_parse(gps_buffer); // this fills the gps struct
 226:Core/Src/main.c **** 
 227:Core/Src/main.c **** GPS_display_status(&gps);
 228:Core/Src/main.c **** HAL_Delay(500);
 229:Core/Src/main.c **** 
 230:Core/Src/main.c **** 
 231:Core/Src/main.c **** // ====================== Main screen code ==========================
 232:Core/Src/main.c **** 
 233:Core/Src/main.c **** void	main_screen(void)
 234:Core/Src/main.c **** {
 235:Core/Src/main.c **** 	ssd1306_Fill(Black);
 236:Core/Src/main.c **** 	// Draw text strings (scaled 2x positions)
 237:Core/Src/main.c **** 	ssd1306_SetCursor(80, 44);
 238:Core/Src/main.c **** 	ssd1306_WriteString("send", Font_7x10, White);
 239:Core/Src/main.c **** 
 240:Core/Src/main.c **** 	ssd1306_SetCursor(14, 44);
 241:Core/Src/main.c **** 	ssd1306_WriteString("scan", Font_7x10, White);
 242:Core/Src/main.c **** 
 243:Core/Src/main.c **** 	// Draw lines (paper airplane icon - scaled 2x)
 244:Core/Src/main.c **** 	ssd1306_Line(84, 22, 112, 10, White);
 245:Core/Src/main.c **** 	ssd1306_Line(114, 10, 74, 12, White);
 246:Core/Src/main.c **** 	ssd1306_Line(114, 10, 98, 32, White);
 247:Core/Src/main.c **** 	ssd1306_Line(84, 22, 100, 34, White);
 248:Core/Src/main.c **** 	ssd1306_Line(84, 22, 74, 12, White);
 249:Core/Src/main.c **** 	ssd1306_Line(80, 20, 84, 32, White);
 250:Core/Src/main.c **** 	ssd1306_Line(84, 34, 94, 28, White);
 251:Core/Src/main.c **** 
 252:Core/Src/main.c **** 	// Draw circles (scan/radar icon - scaled 2x)
 253:Core/Src/main.c **** 	ssd1306_DrawCircle(30, 22, 8, White);
ARM GAS  /tmp/ccZzrLig.s 			page 8


 254:Core/Src/main.c **** 	ssd1306_DrawCircle(30, 22, 14, White);
 255:Core/Src/main.c **** 	ssd1306_DrawPixel(30, 22, White);
 256:Core/Src/main.c **** 	ssd1306_DrawCircle(30, 22, 2, White);
 257:Core/Src/main.c **** 
 258:Core/Src/main.c **** 	// Update the display
 259:Core/Src/main.c **** 	ssd1306_UpdateScreen();
 260:Core/Src/main.c **** }
 261:Core/Src/main.c **** 
 262:Core/Src/main.c **** void	scan_mode(void)
 263:Core/Src/main.c **** {
 140              		.loc 1 263 1 view -0
 141              		.cfi_startproc
 142              		@ args = 0, pretend = 0, frame = 0
 143              		@ frame_needed = 0, uses_anonymous_args = 0
 144 0000 70B5     		push	{r4, r5, r6, lr}
 145              	.LCFI4:
 146              		.cfi_def_cfa_offset 16
 147              		.cfi_offset 4, -16
 148              		.cfi_offset 5, -12
 149              		.cfi_offset 6, -8
 150              		.cfi_offset 14, -4
 151 0002 82B0     		sub	sp, sp, #8
 152              	.LCFI5:
 153              		.cfi_def_cfa_offset 24
 264:Core/Src/main.c **** 		// Draw filled rectangle (64x64 at position 0,0) - replaces bitmap
 265:Core/Src/main.c **** 		ssd1306_Fill(Black);	
 154              		.loc 1 265 3 view .LVU17
 155 0004 0020     		movs	r0, #0
 156 0006 FFF7FEFF 		bl	ssd1306_Fill
 157              	.LVL8:
 266:Core/Src/main.c **** 		ssd1306_FillRectangle(0, 0, 64, 64, White);
 158              		.loc 1 266 3 view .LVU18
 159 000a 0124     		movs	r4, #1
 160 000c 0094     		str	r4, [sp]
 161 000e 4023     		movs	r3, #64
 162 0010 1A46     		mov	r2, r3
 163 0012 0021     		movs	r1, #0
 164 0014 0846     		mov	r0, r1
 165 0016 FFF7FEFF 		bl	ssd1306_FillRectangle
 166              	.LVL9:
 267:Core/Src/main.c **** 
 268:Core/Src/main.c **** 		// Draw "send" text in white (scaled 2x)
 269:Core/Src/main.c **** 		ssd1306_SetCursor(80, 44);
 167              		.loc 1 269 3 view .LVU19
 168 001a 2C21     		movs	r1, #44
 169 001c 5020     		movs	r0, #80
 170 001e FFF7FEFF 		bl	ssd1306_SetCursor
 171              	.LVL10:
 270:Core/Src/main.c **** 		ssd1306_WriteString("send", Font_7x10, White);
 172              		.loc 1 270 3 view .LVU20
 173 0022 314D     		ldr	r5, .L12
 174 0024 0094     		str	r4, [sp]
 175 0026 95E80E00 		ldm	r5, {r1, r2, r3}
 176 002a 3048     		ldr	r0, .L12+4
 177 002c FFF7FEFF 		bl	ssd1306_WriteString
 178              	.LVL11:
 271:Core/Src/main.c **** 
ARM GAS  /tmp/ccZzrLig.s 			page 9


 272:Core/Src/main.c **** 		// Draw line (paper airplane part)
 273:Core/Src/main.c **** 		ssd1306_Line(84, 22, 112, 10, White);
 179              		.loc 1 273 3 view .LVU21
 180 0030 0094     		str	r4, [sp]
 181 0032 0A23     		movs	r3, #10
 182 0034 7022     		movs	r2, #112
 183 0036 1621     		movs	r1, #22
 184 0038 5420     		movs	r0, #84
 185 003a FFF7FEFF 		bl	ssd1306_Line
 186              	.LVL12:
 274:Core/Src/main.c **** 
 275:Core/Src/main.c **** 		// Draw "scan" text in black (erases)
 276:Core/Src/main.c **** 		ssd1306_SetCursor(14, 44);
 187              		.loc 1 276 3 view .LVU22
 188 003e 2C21     		movs	r1, #44
 189 0040 0E20     		movs	r0, #14
 190 0042 FFF7FEFF 		bl	ssd1306_SetCursor
 191              	.LVL13:
 277:Core/Src/main.c **** 		ssd1306_WriteString("scan", Font_7x10, Black);
 192              		.loc 1 277 3 view .LVU23
 193 0046 0026     		movs	r6, #0
 194 0048 0096     		str	r6, [sp]
 195 004a 95E80E00 		ldm	r5, {r1, r2, r3}
 196 004e 2848     		ldr	r0, .L12+8
 197 0050 FFF7FEFF 		bl	ssd1306_WriteString
 198              	.LVL14:
 278:Core/Src/main.c **** 
 279:Core/Src/main.c **** 		// Draw more lines (paper airplane icon - scaled 2x)
 280:Core/Src/main.c **** 		ssd1306_Line(114, 10, 74, 12, White);
 199              		.loc 1 280 3 view .LVU24
 200 0054 0094     		str	r4, [sp]
 201 0056 0C23     		movs	r3, #12
 202 0058 4A22     		movs	r2, #74
 203 005a 0A21     		movs	r1, #10
 204 005c 7220     		movs	r0, #114
 205 005e FFF7FEFF 		bl	ssd1306_Line
 206              	.LVL15:
 281:Core/Src/main.c **** 		ssd1306_Line(114, 10, 98, 32, White);
 207              		.loc 1 281 3 view .LVU25
 208 0062 0094     		str	r4, [sp]
 209 0064 2023     		movs	r3, #32
 210 0066 6222     		movs	r2, #98
 211 0068 0A21     		movs	r1, #10
 212 006a 7220     		movs	r0, #114
 213 006c FFF7FEFF 		bl	ssd1306_Line
 214              	.LVL16:
 282:Core/Src/main.c **** 		ssd1306_Line(84, 22, 100, 34, White);
 215              		.loc 1 282 3 view .LVU26
 216 0070 0094     		str	r4, [sp]
 217 0072 2223     		movs	r3, #34
 218 0074 6422     		movs	r2, #100
 219 0076 1621     		movs	r1, #22
 220 0078 5420     		movs	r0, #84
 221 007a FFF7FEFF 		bl	ssd1306_Line
 222              	.LVL17:
 283:Core/Src/main.c **** 		ssd1306_Line(84, 22, 74, 12, White);
 223              		.loc 1 283 3 view .LVU27
ARM GAS  /tmp/ccZzrLig.s 			page 10


 224 007e 0094     		str	r4, [sp]
 225 0080 0C23     		movs	r3, #12
 226 0082 4A22     		movs	r2, #74
 227 0084 1621     		movs	r1, #22
 228 0086 5420     		movs	r0, #84
 229 0088 FFF7FEFF 		bl	ssd1306_Line
 230              	.LVL18:
 284:Core/Src/main.c **** 		ssd1306_Line(80, 20, 84, 32, White);
 231              		.loc 1 284 3 view .LVU28
 232 008c 0094     		str	r4, [sp]
 233 008e 2023     		movs	r3, #32
 234 0090 5422     		movs	r2, #84
 235 0092 1421     		movs	r1, #20
 236 0094 5020     		movs	r0, #80
 237 0096 FFF7FEFF 		bl	ssd1306_Line
 238              	.LVL19:
 285:Core/Src/main.c **** 		ssd1306_Line(84, 34, 94, 28, White);
 239              		.loc 1 285 3 view .LVU29
 240 009a 0094     		str	r4, [sp]
 241 009c 1C23     		movs	r3, #28
 242 009e 5E22     		movs	r2, #94
 243 00a0 2221     		movs	r1, #34
 244 00a2 5420     		movs	r0, #84
 245 00a4 FFF7FEFF 		bl	ssd1306_Line
 246              	.LVL20:
 286:Core/Src/main.c **** 
 287:Core/Src/main.c **** 		// Draw circles in black (erases the scan icon)
 288:Core/Src/main.c **** 		ssd1306_DrawCircle(30, 22, 8, Black);
 247              		.loc 1 288 3 view .LVU30
 248 00a8 3346     		mov	r3, r6
 249 00aa 0822     		movs	r2, #8
 250 00ac 1621     		movs	r1, #22
 251 00ae 1E20     		movs	r0, #30
 252 00b0 FFF7FEFF 		bl	ssd1306_DrawCircle
 253              	.LVL21:
 289:Core/Src/main.c **** 		ssd1306_DrawCircle(30, 22, 14, Black);
 254              		.loc 1 289 3 view .LVU31
 255 00b4 3346     		mov	r3, r6
 256 00b6 0E22     		movs	r2, #14
 257 00b8 1621     		movs	r1, #22
 258 00ba 1E20     		movs	r0, #30
 259 00bc FFF7FEFF 		bl	ssd1306_DrawCircle
 260              	.LVL22:
 290:Core/Src/main.c **** 
 291:Core/Src/main.c **** 		// Draw center point in white
 292:Core/Src/main.c **** 		ssd1306_DrawPixel(30, 22, White);
 261              		.loc 1 292 3 view .LVU32
 262 00c0 2246     		mov	r2, r4
 263 00c2 1621     		movs	r1, #22
 264 00c4 1E20     		movs	r0, #30
 265 00c6 FFF7FEFF 		bl	ssd1306_DrawPixel
 266              	.LVL23:
 293:Core/Src/main.c **** 
 294:Core/Src/main.c **** 		// Draw small circle in black
 295:Core/Src/main.c **** 		ssd1306_DrawCircle(30, 22, 2, Black);
 267              		.loc 1 295 3 view .LVU33
 268 00ca 3346     		mov	r3, r6
ARM GAS  /tmp/ccZzrLig.s 			page 11


 269 00cc 0222     		movs	r2, #2
 270 00ce 1621     		movs	r1, #22
 271 00d0 1E20     		movs	r0, #30
 272 00d2 FFF7FEFF 		bl	ssd1306_DrawCircle
 273              	.LVL24:
 296:Core/Src/main.c **** 
 297:Core/Src/main.c **** 		// Update the display
 298:Core/Src/main.c **** 		ssd1306_UpdateScreen();
 274              		.loc 1 298 3 view .LVU34
 275 00d6 FFF7FEFF 		bl	ssd1306_UpdateScreen
 276              	.LVL25:
 299:Core/Src/main.c **** 		HAL_Delay(500);
 277              		.loc 1 299 3 view .LVU35
 278 00da 4FF4FA70 		mov	r0, #500
 279 00de FFF7FEFF 		bl	HAL_Delay
 280              	.LVL26:
 300:Core/Src/main.c **** }
 281              		.loc 1 300 1 is_stmt 0 view .LVU36
 282 00e2 02B0     		add	sp, sp, #8
 283              	.LCFI6:
 284              		.cfi_def_cfa_offset 16
 285              		@ sp needed
 286 00e4 70BD     		pop	{r4, r5, r6, pc}
 287              	.L13:
 288 00e6 00BF     		.align	2
 289              	.L12:
 290 00e8 00000000 		.word	Font_7x10
 291 00ec 00000000 		.word	.LC3
 292 00f0 08000000 		.word	.LC4
 293              		.cfi_endproc
 294              	.LFE72:
 296              		.section	.text.send_mode.2,"ax",%progbits
 297              		.align	1
 298              		.syntax unified
 299              		.thumb
 300              		.thumb_func
 302              	send_mode.2:
 303              	.LFB73:
 301:Core/Src/main.c **** 
 302:Core/Src/main.c **** void	send_mode(void)
 303:Core/Src/main.c **** {
 304              		.loc 1 303 1 is_stmt 1 view -0
 305              		.cfi_startproc
 306              		@ args = 0, pretend = 0, frame = 0
 307              		@ frame_needed = 0, uses_anonymous_args = 0
 308 0000 70B5     		push	{r4, r5, r6, lr}
 309              	.LCFI7:
 310              		.cfi_def_cfa_offset 16
 311              		.cfi_offset 4, -16
 312              		.cfi_offset 5, -12
 313              		.cfi_offset 6, -8
 314              		.cfi_offset 14, -4
 315 0002 82B0     		sub	sp, sp, #8
 316              	.LCFI8:
 317              		.cfi_def_cfa_offset 24
 304:Core/Src/main.c **** 			ssd1306_Fill(Black);
 318              		.loc 1 304 4 view .LVU38
ARM GAS  /tmp/ccZzrLig.s 			page 12


 319 0004 0020     		movs	r0, #0
 320 0006 FFF7FEFF 		bl	ssd1306_Fill
 321              	.LVL27:
 305:Core/Src/main.c **** 		// Draw filled rectangle (64x64 at position 64,0) - replaces bitmap
 306:Core/Src/main.c **** 		ssd1306_FillRectangle(64, 0, 128, 64, White);
 322              		.loc 1 306 3 view .LVU39
 323 000a 0125     		movs	r5, #1
 324 000c 0095     		str	r5, [sp]
 325 000e 4023     		movs	r3, #64
 326 0010 8022     		movs	r2, #128
 327 0012 0021     		movs	r1, #0
 328 0014 1846     		mov	r0, r3
 329 0016 FFF7FEFF 		bl	ssd1306_FillRectangle
 330              	.LVL28:
 307:Core/Src/main.c **** 
 308:Core/Src/main.c **** 		// Draw "send" text in black (erases)
 309:Core/Src/main.c **** 		ssd1306_SetCursor(80, 44);
 331              		.loc 1 309 3 view .LVU40
 332 001a 2C21     		movs	r1, #44
 333 001c 5020     		movs	r0, #80
 334 001e FFF7FEFF 		bl	ssd1306_SetCursor
 335              	.LVL29:
 310:Core/Src/main.c **** 		ssd1306_WriteString("send", Font_7x10, Black);
 336              		.loc 1 310 3 view .LVU41
 337 0022 314E     		ldr	r6, .L16
 338 0024 0024     		movs	r4, #0
 339 0026 0094     		str	r4, [sp]
 340 0028 96E80E00 		ldm	r6, {r1, r2, r3}
 341 002c 2F48     		ldr	r0, .L16+4
 342 002e FFF7FEFF 		bl	ssd1306_WriteString
 343              	.LVL30:
 311:Core/Src/main.c **** 
 312:Core/Src/main.c **** 		// Draw line in black (paper airplane - erased)
 313:Core/Src/main.c **** 		ssd1306_Line(84, 22, 112, 10, Black);
 344              		.loc 1 313 3 view .LVU42
 345 0032 0094     		str	r4, [sp]
 346 0034 0A23     		movs	r3, #10
 347 0036 7022     		movs	r2, #112
 348 0038 1621     		movs	r1, #22
 349 003a 5420     		movs	r0, #84
 350 003c FFF7FEFF 		bl	ssd1306_Line
 351              	.LVL31:
 314:Core/Src/main.c **** 
 315:Core/Src/main.c **** 		// Draw "scan" text in white
 316:Core/Src/main.c **** 		ssd1306_SetCursor(14, 44);
 352              		.loc 1 316 3 view .LVU43
 353 0040 2C21     		movs	r1, #44
 354 0042 0E20     		movs	r0, #14
 355 0044 FFF7FEFF 		bl	ssd1306_SetCursor
 356              	.LVL32:
 317:Core/Src/main.c **** 		ssd1306_WriteString("scan", Font_7x10, White);
 357              		.loc 1 317 3 view .LVU44
 358 0048 0095     		str	r5, [sp]
 359 004a 96E80E00 		ldm	r6, {r1, r2, r3}
 360 004e 2848     		ldr	r0, .L16+8
 361 0050 FFF7FEFF 		bl	ssd1306_WriteString
 362              	.LVL33:
ARM GAS  /tmp/ccZzrLig.s 			page 13


 318:Core/Src/main.c **** 
 319:Core/Src/main.c **** 		// Draw more lines in black (paper airplane icon - erased)
 320:Core/Src/main.c **** 		ssd1306_Line(114, 10, 74, 12, Black);
 363              		.loc 1 320 3 view .LVU45
 364 0054 0094     		str	r4, [sp]
 365 0056 0C23     		movs	r3, #12
 366 0058 4A22     		movs	r2, #74
 367 005a 0A21     		movs	r1, #10
 368 005c 7220     		movs	r0, #114
 369 005e FFF7FEFF 		bl	ssd1306_Line
 370              	.LVL34:
 321:Core/Src/main.c **** 		ssd1306_Line(114, 10, 98, 32, Black);
 371              		.loc 1 321 3 view .LVU46
 372 0062 0094     		str	r4, [sp]
 373 0064 2023     		movs	r3, #32
 374 0066 6222     		movs	r2, #98
 375 0068 0A21     		movs	r1, #10
 376 006a 7220     		movs	r0, #114
 377 006c FFF7FEFF 		bl	ssd1306_Line
 378              	.LVL35:
 322:Core/Src/main.c **** 		ssd1306_Line(84, 22, 100, 34, Black);
 379              		.loc 1 322 3 view .LVU47
 380 0070 0094     		str	r4, [sp]
 381 0072 2223     		movs	r3, #34
 382 0074 6422     		movs	r2, #100
 383 0076 1621     		movs	r1, #22
 384 0078 5420     		movs	r0, #84
 385 007a FFF7FEFF 		bl	ssd1306_Line
 386              	.LVL36:
 323:Core/Src/main.c **** 		ssd1306_Line(84, 22, 74, 12, Black);
 387              		.loc 1 323 3 view .LVU48
 388 007e 0094     		str	r4, [sp]
 389 0080 0C23     		movs	r3, #12
 390 0082 4A22     		movs	r2, #74
 391 0084 1621     		movs	r1, #22
 392 0086 5420     		movs	r0, #84
 393 0088 FFF7FEFF 		bl	ssd1306_Line
 394              	.LVL37:
 324:Core/Src/main.c **** 		ssd1306_Line(80, 20, 84, 32, Black);
 395              		.loc 1 324 3 view .LVU49
 396 008c 0094     		str	r4, [sp]
 397 008e 2023     		movs	r3, #32
 398 0090 5422     		movs	r2, #84
 399 0092 1421     		movs	r1, #20
 400 0094 5020     		movs	r0, #80
 401 0096 FFF7FEFF 		bl	ssd1306_Line
 402              	.LVL38:
 325:Core/Src/main.c **** 		ssd1306_Line(84, 34, 94, 28, Black);
 403              		.loc 1 325 3 view .LVU50
 404 009a 0094     		str	r4, [sp]
 405 009c 1C23     		movs	r3, #28
 406 009e 5E22     		movs	r2, #94
 407 00a0 2221     		movs	r1, #34
 408 00a2 5420     		movs	r0, #84
 409 00a4 FFF7FEFF 		bl	ssd1306_Line
 410              	.LVL39:
 326:Core/Src/main.c **** 
ARM GAS  /tmp/ccZzrLig.s 			page 14


 327:Core/Src/main.c **** 		// Draw circles in white (scan/radar icon)
 328:Core/Src/main.c **** 		ssd1306_DrawCircle(30, 22, 8, White);
 411              		.loc 1 328 3 view .LVU51
 412 00a8 2B46     		mov	r3, r5
 413 00aa 0822     		movs	r2, #8
 414 00ac 1621     		movs	r1, #22
 415 00ae 1E20     		movs	r0, #30
 416 00b0 FFF7FEFF 		bl	ssd1306_DrawCircle
 417              	.LVL40:
 329:Core/Src/main.c **** 		ssd1306_DrawCircle(30, 22, 14, White);
 418              		.loc 1 329 3 view .LVU52
 419 00b4 2B46     		mov	r3, r5
 420 00b6 0E22     		movs	r2, #14
 421 00b8 1621     		movs	r1, #22
 422 00ba 1E20     		movs	r0, #30
 423 00bc FFF7FEFF 		bl	ssd1306_DrawCircle
 424              	.LVL41:
 330:Core/Src/main.c **** 
 331:Core/Src/main.c **** 		// Draw center point in white
 332:Core/Src/main.c **** 		ssd1306_DrawPixel(30, 22, White);
 425              		.loc 1 332 3 view .LVU53
 426 00c0 2A46     		mov	r2, r5
 427 00c2 1621     		movs	r1, #22
 428 00c4 1E20     		movs	r0, #30
 429 00c6 FFF7FEFF 		bl	ssd1306_DrawPixel
 430              	.LVL42:
 333:Core/Src/main.c **** 
 334:Core/Src/main.c **** 		// Draw small circle in white
 335:Core/Src/main.c **** 		ssd1306_DrawCircle(30, 22, 2, White);
 431              		.loc 1 335 3 view .LVU54
 432 00ca 2B46     		mov	r3, r5
 433 00cc 0222     		movs	r2, #2
 434 00ce 1621     		movs	r1, #22
 435 00d0 1E20     		movs	r0, #30
 436 00d2 FFF7FEFF 		bl	ssd1306_DrawCircle
 437              	.LVL43:
 336:Core/Src/main.c **** 
 337:Core/Src/main.c **** 		// Update the display
 338:Core/Src/main.c **** 		ssd1306_UpdateScreen();
 438              		.loc 1 338 3 view .LVU55
 439 00d6 FFF7FEFF 		bl	ssd1306_UpdateScreen
 440              	.LVL44:
 339:Core/Src/main.c **** 		HAL_Delay(500);
 441              		.loc 1 339 3 view .LVU56
 442 00da 4FF4FA70 		mov	r0, #500
 443 00de FFF7FEFF 		bl	HAL_Delay
 444              	.LVL45:
 340:Core/Src/main.c **** }
 445              		.loc 1 340 1 is_stmt 0 view .LVU57
 446 00e2 02B0     		add	sp, sp, #8
 447              	.LCFI9:
 448              		.cfi_def_cfa_offset 16
 449              		@ sp needed
 450 00e4 70BD     		pop	{r4, r5, r6, pc}
 451              	.L17:
 452 00e6 00BF     		.align	2
 453              	.L16:
ARM GAS  /tmp/ccZzrLig.s 			page 15


 454 00e8 00000000 		.word	Font_7x10
 455 00ec 00000000 		.word	.LC3
 456 00f0 08000000 		.word	.LC4
 457              		.cfi_endproc
 458              	.LFE73:
 460              		.section	.text.main_screen.3,"ax",%progbits
 461              		.align	1
 462              		.syntax unified
 463              		.thumb
 464              		.thumb_func
 466              	main_screen.3:
 467              	.LFB71:
 234:Core/Src/main.c **** 	ssd1306_Fill(Black);
 468              		.loc 1 234 1 is_stmt 1 view -0
 469              		.cfi_startproc
 470              		@ args = 0, pretend = 0, frame = 0
 471              		@ frame_needed = 0, uses_anonymous_args = 0
 472 0000 30B5     		push	{r4, r5, lr}
 473              	.LCFI10:
 474              		.cfi_def_cfa_offset 12
 475              		.cfi_offset 4, -12
 476              		.cfi_offset 5, -8
 477              		.cfi_offset 14, -4
 478 0002 83B0     		sub	sp, sp, #12
 479              	.LCFI11:
 480              		.cfi_def_cfa_offset 24
 235:Core/Src/main.c **** 	// Draw text strings (scaled 2x positions)
 481              		.loc 1 235 2 view .LVU59
 482 0004 0020     		movs	r0, #0
 483 0006 FFF7FEFF 		bl	ssd1306_Fill
 484              	.LVL46:
 237:Core/Src/main.c **** 	ssd1306_WriteString("send", Font_7x10, White);
 485              		.loc 1 237 2 view .LVU60
 486 000a 2C21     		movs	r1, #44
 487 000c 5020     		movs	r0, #80
 488 000e FFF7FEFF 		bl	ssd1306_SetCursor
 489              	.LVL47:
 238:Core/Src/main.c **** 
 490              		.loc 1 238 2 view .LVU61
 491 0012 2F4D     		ldr	r5, .L20
 492 0014 0124     		movs	r4, #1
 493 0016 0094     		str	r4, [sp]
 494 0018 95E80E00 		ldm	r5, {r1, r2, r3}
 495 001c 2D48     		ldr	r0, .L20+4
 496 001e FFF7FEFF 		bl	ssd1306_WriteString
 497              	.LVL48:
 240:Core/Src/main.c **** 	ssd1306_WriteString("scan", Font_7x10, White);
 498              		.loc 1 240 2 view .LVU62
 499 0022 2C21     		movs	r1, #44
 500 0024 0E20     		movs	r0, #14
 501 0026 FFF7FEFF 		bl	ssd1306_SetCursor
 502              	.LVL49:
 241:Core/Src/main.c **** 
 503              		.loc 1 241 2 view .LVU63
 504 002a 0094     		str	r4, [sp]
 505 002c 95E80E00 		ldm	r5, {r1, r2, r3}
 506 0030 2948     		ldr	r0, .L20+8
ARM GAS  /tmp/ccZzrLig.s 			page 16


 507 0032 FFF7FEFF 		bl	ssd1306_WriteString
 508              	.LVL50:
 244:Core/Src/main.c **** 	ssd1306_Line(114, 10, 74, 12, White);
 509              		.loc 1 244 2 view .LVU64
 510 0036 0094     		str	r4, [sp]
 511 0038 0A23     		movs	r3, #10
 512 003a 7022     		movs	r2, #112
 513 003c 1621     		movs	r1, #22
 514 003e 5420     		movs	r0, #84
 515 0040 FFF7FEFF 		bl	ssd1306_Line
 516              	.LVL51:
 245:Core/Src/main.c **** 	ssd1306_Line(114, 10, 98, 32, White);
 517              		.loc 1 245 2 view .LVU65
 518 0044 0094     		str	r4, [sp]
 519 0046 0C23     		movs	r3, #12
 520 0048 4A22     		movs	r2, #74
 521 004a 0A21     		movs	r1, #10
 522 004c 7220     		movs	r0, #114
 523 004e FFF7FEFF 		bl	ssd1306_Line
 524              	.LVL52:
 246:Core/Src/main.c **** 	ssd1306_Line(84, 22, 100, 34, White);
 525              		.loc 1 246 2 view .LVU66
 526 0052 0094     		str	r4, [sp]
 527 0054 2023     		movs	r3, #32
 528 0056 6222     		movs	r2, #98
 529 0058 0A21     		movs	r1, #10
 530 005a 7220     		movs	r0, #114
 531 005c FFF7FEFF 		bl	ssd1306_Line
 532              	.LVL53:
 247:Core/Src/main.c **** 	ssd1306_Line(84, 22, 74, 12, White);
 533              		.loc 1 247 2 view .LVU67
 534 0060 0094     		str	r4, [sp]
 535 0062 2223     		movs	r3, #34
 536 0064 6422     		movs	r2, #100
 537 0066 1621     		movs	r1, #22
 538 0068 5420     		movs	r0, #84
 539 006a FFF7FEFF 		bl	ssd1306_Line
 540              	.LVL54:
 248:Core/Src/main.c **** 	ssd1306_Line(80, 20, 84, 32, White);
 541              		.loc 1 248 2 view .LVU68
 542 006e 0094     		str	r4, [sp]
 543 0070 0C23     		movs	r3, #12
 544 0072 4A22     		movs	r2, #74
 545 0074 1621     		movs	r1, #22
 546 0076 5420     		movs	r0, #84
 547 0078 FFF7FEFF 		bl	ssd1306_Line
 548              	.LVL55:
 249:Core/Src/main.c **** 	ssd1306_Line(84, 34, 94, 28, White);
 549              		.loc 1 249 2 view .LVU69
 550 007c 0094     		str	r4, [sp]
 551 007e 2023     		movs	r3, #32
 552 0080 5422     		movs	r2, #84
 553 0082 1421     		movs	r1, #20
 554 0084 5020     		movs	r0, #80
 555 0086 FFF7FEFF 		bl	ssd1306_Line
 556              	.LVL56:
 250:Core/Src/main.c **** 
ARM GAS  /tmp/ccZzrLig.s 			page 17


 557              		.loc 1 250 2 view .LVU70
 558 008a 0094     		str	r4, [sp]
 559 008c 1C23     		movs	r3, #28
 560 008e 5E22     		movs	r2, #94
 561 0090 2221     		movs	r1, #34
 562 0092 5420     		movs	r0, #84
 563 0094 FFF7FEFF 		bl	ssd1306_Line
 564              	.LVL57:
 253:Core/Src/main.c **** 	ssd1306_DrawCircle(30, 22, 14, White);
 565              		.loc 1 253 2 view .LVU71
 566 0098 2346     		mov	r3, r4
 567 009a 0822     		movs	r2, #8
 568 009c 1621     		movs	r1, #22
 569 009e 1E20     		movs	r0, #30
 570 00a0 FFF7FEFF 		bl	ssd1306_DrawCircle
 571              	.LVL58:
 254:Core/Src/main.c **** 	ssd1306_DrawPixel(30, 22, White);
 572              		.loc 1 254 2 view .LVU72
 573 00a4 2346     		mov	r3, r4
 574 00a6 0E22     		movs	r2, #14
 575 00a8 1621     		movs	r1, #22
 576 00aa 1E20     		movs	r0, #30
 577 00ac FFF7FEFF 		bl	ssd1306_DrawCircle
 578              	.LVL59:
 255:Core/Src/main.c **** 	ssd1306_DrawCircle(30, 22, 2, White);
 579              		.loc 1 255 2 view .LVU73
 580 00b0 2246     		mov	r2, r4
 581 00b2 1621     		movs	r1, #22
 582 00b4 1E20     		movs	r0, #30
 583 00b6 FFF7FEFF 		bl	ssd1306_DrawPixel
 584              	.LVL60:
 256:Core/Src/main.c **** 
 585              		.loc 1 256 2 view .LVU74
 586 00ba 2346     		mov	r3, r4
 587 00bc 0222     		movs	r2, #2
 588 00be 1621     		movs	r1, #22
 589 00c0 1E20     		movs	r0, #30
 590 00c2 FFF7FEFF 		bl	ssd1306_DrawCircle
 591              	.LVL61:
 259:Core/Src/main.c **** }
 592              		.loc 1 259 2 view .LVU75
 593 00c6 FFF7FEFF 		bl	ssd1306_UpdateScreen
 594              	.LVL62:
 260:Core/Src/main.c **** 
 595              		.loc 1 260 1 is_stmt 0 view .LVU76
 596 00ca 03B0     		add	sp, sp, #12
 597              	.LCFI12:
 598              		.cfi_def_cfa_offset 12
 599              		@ sp needed
 600 00cc 30BD     		pop	{r4, r5, pc}
 601              	.L21:
 602 00ce 00BF     		.align	2
 603              	.L20:
 604 00d0 00000000 		.word	Font_7x10
 605 00d4 00000000 		.word	.LC3
 606 00d8 08000000 		.word	.LC4
 607              		.cfi_endproc
ARM GAS  /tmp/ccZzrLig.s 			page 18


 608              	.LFE71:
 610              		.section	.text.HAL_UART_RxCpltCallback,"ax",%progbits
 611              		.align	1
 612              		.global	HAL_UART_RxCpltCallback
 613              		.syntax unified
 614              		.thumb
 615              		.thumb_func
 617              	HAL_UART_RxCpltCallback:
 618              	.LVL63:
 619              	.LFB68:
  81:Core/Src/main.c **** 	if(huart == &huart1) GPS_UART_CallBack();
 620              		.loc 1 81 1 is_stmt 1 view -0
 621              		.cfi_startproc
 622              		@ args = 0, pretend = 0, frame = 0
 623              		@ frame_needed = 0, uses_anonymous_args = 0
  81:Core/Src/main.c **** 	if(huart == &huart1) GPS_UART_CallBack();
 624              		.loc 1 81 1 is_stmt 0 view .LVU78
 625 0000 08B5     		push	{r3, lr}
 626              	.LCFI13:
 627              		.cfi_def_cfa_offset 8
 628              		.cfi_offset 3, -8
 629              		.cfi_offset 14, -4
  82:Core/Src/main.c **** }
 630              		.loc 1 82 2 is_stmt 1 view .LVU79
  82:Core/Src/main.c **** }
 631              		.loc 1 82 4 is_stmt 0 view .LVU80
 632 0002 034B     		ldr	r3, .L26
 633 0004 8342     		cmp	r3, r0
 634 0006 00D0     		beq	.L25
 635              	.LVL64:
 636              	.L22:
  83:Core/Src/main.c **** 
 637              		.loc 1 83 1 view .LVU81
 638 0008 08BD     		pop	{r3, pc}
 639              	.LVL65:
 640              	.L25:
  82:Core/Src/main.c **** }
 641              		.loc 1 82 23 is_stmt 1 discriminator 1 view .LVU82
 642 000a FFF7FEFF 		bl	GPS_UART_CallBack
 643              	.LVL66:
  83:Core/Src/main.c **** 
 644              		.loc 1 83 1 is_stmt 0 view .LVU83
 645 000e FBE7     		b	.L22
 646              	.L27:
 647              		.align	2
 648              	.L26:
 649 0010 00000000 		.word	huart1
 650              		.cfi_endproc
 651              	.LFE68:
 653              		.section	.text.HAL_GPIO_EXTI_Callback,"ax",%progbits
 654              		.align	1
 655              		.global	HAL_GPIO_EXTI_Callback
 656              		.syntax unified
 657              		.thumb
 658              		.thumb_func
 660              	HAL_GPIO_EXTI_Callback:
 661              	.LVL67:
ARM GAS  /tmp/ccZzrLig.s 			page 19


 662              	.LFB75:
 341:Core/Src/main.c ****   /* USER CODE END 2 */
 342:Core/Src/main.c **** 
 343:Core/Src/main.c **** 
 344:Core/Src/main.c **** // ====================APP Init ==========================
 345:Core/Src/main.c **** COMM_Init();
 346:Core/Src/main.c **** SCAN_Init();
 347:Core/Src/main.c **** bool	scan_was_active = false;
 348:Core/Src/main.c **** main_screen();
 349:Core/Src/main.c ****   /* Infinite loop */
 350:Core/Src/main.c ****   /* USER CODE BEGIN WHILE */
 351:Core/Src/main.c ****   while (1)
 352:Core/Src/main.c ****   {
 353:Core/Src/main.c ****     /* USER CODE END WHILE */
 354:Core/Src/main.c **** 	// SCANNING
 355:Core/Src/main.c **** 	if (scan_btn_pressed)
 356:Core/Src/main.c **** 	{
 357:Core/Src/main.c **** 		scan_btn_pressed = false;
 358:Core/Src/main.c **** 		scan_mode();
 359:Core/Src/main.c **** 
 360:Core/Src/main.c **** 		if (!SCAN_IsActive())
 361:Core/Src/main.c **** 			SCAN_Start();
 362:Core/Src/main.c **** 	
 363:Core/Src/main.c **** 	}
 364:Core/Src/main.c **** 	// SENDING
 365:Core/Src/main.c **** 	if (send_btn_pressed)
 366:Core/Src/main.c **** 	{
 367:Core/Src/main.c **** 
 368:Core/Src/main.c **** 		send_btn_pressed = false;
 369:Core/Src/main.c **** 		send_mode();
 370:Core/Src/main.c **** 		COMM_SendLocation(44.18f, 44.51f, 0x01);
 371:Core/Src/main.c **** 
 372:Core/Src/main.c **** 		ssd1306_Fill(Black);
 373:Core/Src/main.c **** 		ssd1306_SetCursor(16,16);
 374:Core/Src/main.c **** 		ssd1306_WriteString("Sent", Font_11x18, White);
 375:Core/Src/main.c **** 		ssd1306_UpdateScreen();
 376:Core/Src/main.c **** 	}
 377:Core/Src/main.c **** 
 378:Core/Src/main.c **** 	COMM_Process();
 379:Core/Src/main.c **** 	SCAN_Process();
 380:Core/Src/main.c **** 
 381:Core/Src/main.c **** 	if (SCAN_IsActive() && !scan_was_active)
 382:Core/Src/main.c **** 	{
 383:Core/Src/main.c **** 		scan_was_active = true;
 384:Core/Src/main.c **** 
 385:Core/Src/main.c **** 		ssd1306_Fill(Black);
 386:Core/Src/main.c ****         	ssd1306_SetCursor(16, 16);
 387:Core/Src/main.c **** 		ssd1306_WriteString("Scanning...", Font_11x18, White);
 388:Core/Src/main.c ****         	ssd1306_UpdateScreen();
 389:Core/Src/main.c **** 	}
 390:Core/Src/main.c **** 	if (!SCAN_IsActive() && scan_was_active)
 391:Core/Src/main.c **** 	{
 392:Core/Src/main.c **** 		scan_was_active = false;
 393:Core/Src/main.c **** 		ssd1306_Fill(Black);
 394:Core/Src/main.c ****         	ssd1306_SetCursor(16, 16);
 395:Core/Src/main.c **** 		ssd1306_WriteString("Scan done", Font_11x18, White);
 396:Core/Src/main.c ****         	ssd1306_UpdateScreen();
ARM GAS  /tmp/ccZzrLig.s 			page 20


 397:Core/Src/main.c **** 		HAL_Delay(500);
 398:Core/Src/main.c **** 		main_screen();
 399:Core/Src/main.c **** 	}
 400:Core/Src/main.c **** 
 401:Core/Src/main.c **** 	if (COMM_HasPacket())
 402:Core/Src/main.c **** 	{
 403:Core/Src/main.c **** 		CommPacket_t pkt;
 404:Core/Src/main.c **** 		if (COMM_GetPacket(&pkt))
 405:Core/Src/main.c **** 		{
 406:Core/Src/main.c **** 			if (pkt.type == COMM_LOCATION)
 407:Core/Src/main.c **** 			{
 408:Core/Src/main.c **** 				ssd1306_Fill(Black);
 409:Core/Src/main.c **** 				ssd1306_SetCursor(16,16);
 410:Core/Src/main.c **** 				ssd1306_WriteString("RX Location", Font_11x18, White);
 411:Core/Src/main.c **** 				ssd1306_UpdateScreen();
 412:Core/Src/main.c **** 			}
 413:Core/Src/main.c **** 		}
 414:Core/Src/main.c **** 
 415:Core/Src/main.c **** 	}
 416:Core/Src/main.c ****     /* USER CODE BEGIN 3 */
 417:Core/Src/main.c ****   }
 418:Core/Src/main.c ****   /* USER CODE END 3 */
 419:Core/Src/main.c **** }
 420:Core/Src/main.c **** 
 421:Core/Src/main.c **** /**
 422:Core/Src/main.c ****   * @brief System Clock Configuration
 423:Core/Src/main.c ****   * @retval None
 424:Core/Src/main.c ****   */
 425:Core/Src/main.c **** void SystemClock_Config(void)
 426:Core/Src/main.c **** {
 427:Core/Src/main.c ****   RCC_OscInitTypeDef RCC_OscInitStruct = {0};
 428:Core/Src/main.c ****   RCC_ClkInitTypeDef RCC_ClkInitStruct = {0};
 429:Core/Src/main.c **** 
 430:Core/Src/main.c ****   /** Initializes the RCC Oscillators according to the specified parameters
 431:Core/Src/main.c ****   * in the RCC_OscInitTypeDef structure.
 432:Core/Src/main.c ****   */
 433:Core/Src/main.c ****   RCC_OscInitStruct.OscillatorType = RCC_OSCILLATORTYPE_HSE;
 434:Core/Src/main.c ****   RCC_OscInitStruct.HSEState = RCC_HSE_ON;
 435:Core/Src/main.c ****   RCC_OscInitStruct.HSEPredivValue = RCC_HSE_PREDIV_DIV1;
 436:Core/Src/main.c ****   RCC_OscInitStruct.HSIState = RCC_HSI_ON;
 437:Core/Src/main.c ****   RCC_OscInitStruct.PLL.PLLState = RCC_PLL_ON;
 438:Core/Src/main.c ****   RCC_OscInitStruct.PLL.PLLSource = RCC_PLLSOURCE_HSE;
 439:Core/Src/main.c ****   RCC_OscInitStruct.PLL.PLLMUL = RCC_PLL_MUL9;
 440:Core/Src/main.c ****   if (HAL_RCC_OscConfig(&RCC_OscInitStruct) != HAL_OK)
 441:Core/Src/main.c ****   {
 442:Core/Src/main.c ****     Error_Handler();
 443:Core/Src/main.c ****   }
 444:Core/Src/main.c **** 
 445:Core/Src/main.c ****   /** Initializes the CPU, AHB and APB buses clocks
 446:Core/Src/main.c ****   */
 447:Core/Src/main.c ****   RCC_ClkInitStruct.ClockType = RCC_CLOCKTYPE_HCLK|RCC_CLOCKTYPE_SYSCLK
 448:Core/Src/main.c ****                               |RCC_CLOCKTYPE_PCLK1|RCC_CLOCKTYPE_PCLK2;
 449:Core/Src/main.c ****   RCC_ClkInitStruct.SYSCLKSource = RCC_SYSCLKSOURCE_PLLCLK;
 450:Core/Src/main.c ****   RCC_ClkInitStruct.AHBCLKDivider = RCC_SYSCLK_DIV1;
 451:Core/Src/main.c ****   RCC_ClkInitStruct.APB1CLKDivider = RCC_HCLK_DIV2;
 452:Core/Src/main.c ****   RCC_ClkInitStruct.APB2CLKDivider = RCC_HCLK_DIV1;
 453:Core/Src/main.c **** 
ARM GAS  /tmp/ccZzrLig.s 			page 21


 454:Core/Src/main.c ****   if (HAL_RCC_ClockConfig(&RCC_ClkInitStruct, FLASH_LATENCY_2) != HAL_OK)
 455:Core/Src/main.c ****   {
 456:Core/Src/main.c ****     Error_Handler();
 457:Core/Src/main.c ****   }
 458:Core/Src/main.c **** }
 459:Core/Src/main.c **** 
 460:Core/Src/main.c **** /* USER CODE BEGIN 4 */
 461:Core/Src/main.c **** void	HAL_GPIO_EXTI_Callback(uint16_t GPIO_pin)
 462:Core/Src/main.c **** {
 663              		.loc 1 462 1 is_stmt 1 view -0
 664              		.cfi_startproc
 665              		@ args = 0, pretend = 0, frame = 0
 666              		@ frame_needed = 0, uses_anonymous_args = 0
 667              		@ link register save eliminated.
 463:Core/Src/main.c **** 	if (GPIO_pin == scan_Pin)
 668              		.loc 1 463 2 view .LVU85
 669              		.loc 1 463 5 is_stmt 0 view .LVU86
 670 0000 0428     		cmp	r0, #4
 671 0002 02D0     		beq	.L31
 464:Core/Src/main.c **** 		scan_btn_pressed = true;
 465:Core/Src/main.c **** 	else if (GPIO_pin == send_Pin)
 672              		.loc 1 465 7 is_stmt 1 view .LVU87
 673              		.loc 1 465 10 is_stmt 0 view .LVU88
 674 0004 0228     		cmp	r0, #2
 675 0006 04D0     		beq	.L32
 676              	.L28:
 466:Core/Src/main.c **** 		send_btn_pressed = true;
 467:Core/Src/main.c **** }
 677              		.loc 1 467 1 view .LVU89
 678 0008 7047     		bx	lr
 679              	.L31:
 464:Core/Src/main.c **** 		scan_btn_pressed = true;
 680              		.loc 1 464 3 is_stmt 1 view .LVU90
 464:Core/Src/main.c **** 		scan_btn_pressed = true;
 681              		.loc 1 464 20 is_stmt 0 view .LVU91
 682 000a 044B     		ldr	r3, .L33
 683 000c 0122     		movs	r2, #1
 684 000e 1A70     		strb	r2, [r3]
 685 0010 7047     		bx	lr
 686              	.L32:
 466:Core/Src/main.c **** 		send_btn_pressed = true;
 687              		.loc 1 466 3 is_stmt 1 view .LVU92
 466:Core/Src/main.c **** 		send_btn_pressed = true;
 688              		.loc 1 466 20 is_stmt 0 view .LVU93
 689 0012 034B     		ldr	r3, .L33+4
 690 0014 0122     		movs	r2, #1
 691 0016 1A70     		strb	r2, [r3]
 692              		.loc 1 467 1 view .LVU94
 693 0018 F6E7     		b	.L28
 694              	.L34:
 695 001a 00BF     		.align	2
 696              	.L33:
 697 001c 00000000 		.word	scan_btn_pressed
 698 0020 00000000 		.word	send_btn_pressed
 699              		.cfi_endproc
 700              	.LFE75:
 702              		.section	.text.Error_Handler,"ax",%progbits
ARM GAS  /tmp/ccZzrLig.s 			page 22


 703              		.align	1
 704              		.global	Error_Handler
 705              		.syntax unified
 706              		.thumb
 707              		.thumb_func
 709              	Error_Handler:
 710              	.LFB76:
 468:Core/Src/main.c **** /* USER CODE END 4 */
 469:Core/Src/main.c **** 
 470:Core/Src/main.c **** /**
 471:Core/Src/main.c ****   * @brief  This function is executed in case of error occurrence.
 472:Core/Src/main.c ****   * @retval None
 473:Core/Src/main.c ****   */
 474:Core/Src/main.c **** void Error_Handler(void)
 475:Core/Src/main.c **** {
 711              		.loc 1 475 1 is_stmt 1 view -0
 712              		.cfi_startproc
 713              		@ Volatile: function does not return.
 714              		@ args = 0, pretend = 0, frame = 0
 715              		@ frame_needed = 0, uses_anonymous_args = 0
 716              		@ link register save eliminated.
 476:Core/Src/main.c ****   /* USER CODE BEGIN Error_Handler_Debug */
 477:Core/Src/main.c ****   /* User can add his own implementation to report the HAL error return state */
 478:Core/Src/main.c ****   __disable_irq();
 717              		.loc 1 478 3 view .LVU96
 718              	.LBB4:
 719              	.LBI4:
 720              		.file 2 "Drivers/CMSIS/Include/cmsis_gcc.h"
   1:Drivers/CMSIS/Include/cmsis_gcc.h **** /**************************************************************************//**
   2:Drivers/CMSIS/Include/cmsis_gcc.h ****  * @file     cmsis_gcc.h
   3:Drivers/CMSIS/Include/cmsis_gcc.h ****  * @brief    CMSIS compiler GCC header file
   4:Drivers/CMSIS/Include/cmsis_gcc.h ****  * @version  V5.0.4
   5:Drivers/CMSIS/Include/cmsis_gcc.h ****  * @date     09. April 2018
   6:Drivers/CMSIS/Include/cmsis_gcc.h ****  ******************************************************************************/
   7:Drivers/CMSIS/Include/cmsis_gcc.h **** /*
   8:Drivers/CMSIS/Include/cmsis_gcc.h ****  * Copyright (c) 2009-2018 Arm Limited. All rights reserved.
   9:Drivers/CMSIS/Include/cmsis_gcc.h ****  *
  10:Drivers/CMSIS/Include/cmsis_gcc.h ****  * SPDX-License-Identifier: Apache-2.0
  11:Drivers/CMSIS/Include/cmsis_gcc.h ****  *
  12:Drivers/CMSIS/Include/cmsis_gcc.h ****  * Licensed under the Apache License, Version 2.0 (the License); you may
  13:Drivers/CMSIS/Include/cmsis_gcc.h ****  * not use this file except in compliance with the License.
  14:Drivers/CMSIS/Include/cmsis_gcc.h ****  * You may obtain a copy of the License at
  15:Drivers/CMSIS/Include/cmsis_gcc.h ****  *
  16:Drivers/CMSIS/Include/cmsis_gcc.h ****  * www.apache.org/licenses/LICENSE-2.0
  17:Drivers/CMSIS/Include/cmsis_gcc.h ****  *
  18:Drivers/CMSIS/Include/cmsis_gcc.h ****  * Unless required by applicable law or agreed to in writing, software
  19:Drivers/CMSIS/Include/cmsis_gcc.h ****  * distributed under the License is distributed on an AS IS BASIS, WITHOUT
  20:Drivers/CMSIS/Include/cmsis_gcc.h ****  * WARRANTIES OR CONDITIONS OF ANY KIND, either express or implied.
  21:Drivers/CMSIS/Include/cmsis_gcc.h ****  * See the License for the specific language governing permissions and
  22:Drivers/CMSIS/Include/cmsis_gcc.h ****  * limitations under the License.
  23:Drivers/CMSIS/Include/cmsis_gcc.h ****  */
  24:Drivers/CMSIS/Include/cmsis_gcc.h **** 
  25:Drivers/CMSIS/Include/cmsis_gcc.h **** #ifndef __CMSIS_GCC_H
  26:Drivers/CMSIS/Include/cmsis_gcc.h **** #define __CMSIS_GCC_H
  27:Drivers/CMSIS/Include/cmsis_gcc.h **** 
  28:Drivers/CMSIS/Include/cmsis_gcc.h **** /* ignore some GCC warnings */
  29:Drivers/CMSIS/Include/cmsis_gcc.h **** #pragma GCC diagnostic push
ARM GAS  /tmp/ccZzrLig.s 			page 23


  30:Drivers/CMSIS/Include/cmsis_gcc.h **** #pragma GCC diagnostic ignored "-Wsign-conversion"
  31:Drivers/CMSIS/Include/cmsis_gcc.h **** #pragma GCC diagnostic ignored "-Wconversion"
  32:Drivers/CMSIS/Include/cmsis_gcc.h **** #pragma GCC diagnostic ignored "-Wunused-parameter"
  33:Drivers/CMSIS/Include/cmsis_gcc.h **** 
  34:Drivers/CMSIS/Include/cmsis_gcc.h **** /* Fallback for __has_builtin */
  35:Drivers/CMSIS/Include/cmsis_gcc.h **** #ifndef __has_builtin
  36:Drivers/CMSIS/Include/cmsis_gcc.h ****   #define __has_builtin(x) (0)
  37:Drivers/CMSIS/Include/cmsis_gcc.h **** #endif
  38:Drivers/CMSIS/Include/cmsis_gcc.h **** 
  39:Drivers/CMSIS/Include/cmsis_gcc.h **** /* CMSIS compiler specific defines */
  40:Drivers/CMSIS/Include/cmsis_gcc.h **** #ifndef   __ASM
  41:Drivers/CMSIS/Include/cmsis_gcc.h ****   #define __ASM                                  __asm
  42:Drivers/CMSIS/Include/cmsis_gcc.h **** #endif
  43:Drivers/CMSIS/Include/cmsis_gcc.h **** #ifndef   __INLINE
  44:Drivers/CMSIS/Include/cmsis_gcc.h ****   #define __INLINE                               inline
  45:Drivers/CMSIS/Include/cmsis_gcc.h **** #endif
  46:Drivers/CMSIS/Include/cmsis_gcc.h **** #ifndef   __STATIC_INLINE
  47:Drivers/CMSIS/Include/cmsis_gcc.h ****   #define __STATIC_INLINE                        static inline
  48:Drivers/CMSIS/Include/cmsis_gcc.h **** #endif
  49:Drivers/CMSIS/Include/cmsis_gcc.h **** #ifndef   __STATIC_FORCEINLINE                 
  50:Drivers/CMSIS/Include/cmsis_gcc.h ****   #define __STATIC_FORCEINLINE                   __attribute__((always_inline)) static inline
  51:Drivers/CMSIS/Include/cmsis_gcc.h **** #endif                                           
  52:Drivers/CMSIS/Include/cmsis_gcc.h **** #ifndef   __NO_RETURN
  53:Drivers/CMSIS/Include/cmsis_gcc.h ****   #define __NO_RETURN                            __attribute__((__noreturn__))
  54:Drivers/CMSIS/Include/cmsis_gcc.h **** #endif
  55:Drivers/CMSIS/Include/cmsis_gcc.h **** #ifndef   __USED
  56:Drivers/CMSIS/Include/cmsis_gcc.h ****   #define __USED                                 __attribute__((used))
  57:Drivers/CMSIS/Include/cmsis_gcc.h **** #endif
  58:Drivers/CMSIS/Include/cmsis_gcc.h **** #ifndef   __WEAK
  59:Drivers/CMSIS/Include/cmsis_gcc.h ****   #define __WEAK                                 __attribute__((weak))
  60:Drivers/CMSIS/Include/cmsis_gcc.h **** #endif
  61:Drivers/CMSIS/Include/cmsis_gcc.h **** #ifndef   __PACKED
  62:Drivers/CMSIS/Include/cmsis_gcc.h ****   #define __PACKED                               __attribute__((packed, aligned(1)))
  63:Drivers/CMSIS/Include/cmsis_gcc.h **** #endif
  64:Drivers/CMSIS/Include/cmsis_gcc.h **** #ifndef   __PACKED_STRUCT
  65:Drivers/CMSIS/Include/cmsis_gcc.h ****   #define __PACKED_STRUCT                        struct __attribute__((packed, aligned(1)))
  66:Drivers/CMSIS/Include/cmsis_gcc.h **** #endif
  67:Drivers/CMSIS/Include/cmsis_gcc.h **** #ifndef   __PACKED_UNION
  68:Drivers/CMSIS/Include/cmsis_gcc.h ****   #define __PACKED_UNION                         union __attribute__((packed, aligned(1)))
  69:Drivers/CMSIS/Include/cmsis_gcc.h **** #endif
  70:Drivers/CMSIS/Include/cmsis_gcc.h **** #ifndef   __UNALIGNED_UINT32        /* deprecated */
  71:Drivers/CMSIS/Include/cmsis_gcc.h ****   #pragma GCC diagnostic push
  72:Drivers/CMSIS/Include/cmsis_gcc.h ****   #pragma GCC diagnostic ignored "-Wpacked"
  73:Drivers/CMSIS/Include/cmsis_gcc.h ****   #pragma GCC diagnostic ignored "-Wattributes"
  74:Drivers/CMSIS/Include/cmsis_gcc.h ****   struct __attribute__((packed)) T_UINT32 { uint32_t v; };
  75:Drivers/CMSIS/Include/cmsis_gcc.h ****   #pragma GCC diagnostic pop
  76:Drivers/CMSIS/Include/cmsis_gcc.h ****   #define __UNALIGNED_UINT32(x)                  (((struct T_UINT32 *)(x))->v)
  77:Drivers/CMSIS/Include/cmsis_gcc.h **** #endif
  78:Drivers/CMSIS/Include/cmsis_gcc.h **** #ifndef   __UNALIGNED_UINT16_WRITE
  79:Drivers/CMSIS/Include/cmsis_gcc.h ****   #pragma GCC diagnostic push
  80:Drivers/CMSIS/Include/cmsis_gcc.h ****   #pragma GCC diagnostic ignored "-Wpacked"
  81:Drivers/CMSIS/Include/cmsis_gcc.h ****   #pragma GCC diagnostic ignored "-Wattributes"
  82:Drivers/CMSIS/Include/cmsis_gcc.h ****   __PACKED_STRUCT T_UINT16_WRITE { uint16_t v; };
  83:Drivers/CMSIS/Include/cmsis_gcc.h ****   #pragma GCC diagnostic pop
  84:Drivers/CMSIS/Include/cmsis_gcc.h ****   #define __UNALIGNED_UINT16_WRITE(addr, val)    (void)((((struct T_UINT16_WRITE *)(void *)(addr))-
  85:Drivers/CMSIS/Include/cmsis_gcc.h **** #endif
  86:Drivers/CMSIS/Include/cmsis_gcc.h **** #ifndef   __UNALIGNED_UINT16_READ
ARM GAS  /tmp/ccZzrLig.s 			page 24


  87:Drivers/CMSIS/Include/cmsis_gcc.h ****   #pragma GCC diagnostic push
  88:Drivers/CMSIS/Include/cmsis_gcc.h ****   #pragma GCC diagnostic ignored "-Wpacked"
  89:Drivers/CMSIS/Include/cmsis_gcc.h ****   #pragma GCC diagnostic ignored "-Wattributes"
  90:Drivers/CMSIS/Include/cmsis_gcc.h ****   __PACKED_STRUCT T_UINT16_READ { uint16_t v; };
  91:Drivers/CMSIS/Include/cmsis_gcc.h ****   #pragma GCC diagnostic pop
  92:Drivers/CMSIS/Include/cmsis_gcc.h ****   #define __UNALIGNED_UINT16_READ(addr)          (((const struct T_UINT16_READ *)(const void *)(add
  93:Drivers/CMSIS/Include/cmsis_gcc.h **** #endif
  94:Drivers/CMSIS/Include/cmsis_gcc.h **** #ifndef   __UNALIGNED_UINT32_WRITE
  95:Drivers/CMSIS/Include/cmsis_gcc.h ****   #pragma GCC diagnostic push
  96:Drivers/CMSIS/Include/cmsis_gcc.h ****   #pragma GCC diagnostic ignored "-Wpacked"
  97:Drivers/CMSIS/Include/cmsis_gcc.h ****   #pragma GCC diagnostic ignored "-Wattributes"
  98:Drivers/CMSIS/Include/cmsis_gcc.h ****   __PACKED_STRUCT T_UINT32_WRITE { uint32_t v; };
  99:Drivers/CMSIS/Include/cmsis_gcc.h ****   #pragma GCC diagnostic pop
 100:Drivers/CMSIS/Include/cmsis_gcc.h ****   #define __UNALIGNED_UINT32_WRITE(addr, val)    (void)((((struct T_UINT32_WRITE *)(void *)(addr))-
 101:Drivers/CMSIS/Include/cmsis_gcc.h **** #endif
 102:Drivers/CMSIS/Include/cmsis_gcc.h **** #ifndef   __UNALIGNED_UINT32_READ
 103:Drivers/CMSIS/Include/cmsis_gcc.h ****   #pragma GCC diagnostic push
 104:Drivers/CMSIS/Include/cmsis_gcc.h ****   #pragma GCC diagnostic ignored "-Wpacked"
 105:Drivers/CMSIS/Include/cmsis_gcc.h ****   #pragma GCC diagnostic ignored "-Wattributes"
 106:Drivers/CMSIS/Include/cmsis_gcc.h ****   __PACKED_STRUCT T_UINT32_READ { uint32_t v; };
 107:Drivers/CMSIS/Include/cmsis_gcc.h ****   #pragma GCC diagnostic pop
 108:Drivers/CMSIS/Include/cmsis_gcc.h ****   #define __UNALIGNED_UINT32_READ(addr)          (((const struct T_UINT32_READ *)(const void *)(add
 109:Drivers/CMSIS/Include/cmsis_gcc.h **** #endif
 110:Drivers/CMSIS/Include/cmsis_gcc.h **** #ifndef   __ALIGNED
 111:Drivers/CMSIS/Include/cmsis_gcc.h ****   #define __ALIGNED(x)                           __attribute__((aligned(x)))
 112:Drivers/CMSIS/Include/cmsis_gcc.h **** #endif
 113:Drivers/CMSIS/Include/cmsis_gcc.h **** #ifndef   __RESTRICT
 114:Drivers/CMSIS/Include/cmsis_gcc.h ****   #define __RESTRICT                             __restrict
 115:Drivers/CMSIS/Include/cmsis_gcc.h **** #endif
 116:Drivers/CMSIS/Include/cmsis_gcc.h **** 
 117:Drivers/CMSIS/Include/cmsis_gcc.h **** 
 118:Drivers/CMSIS/Include/cmsis_gcc.h **** /* ###########################  Core Function Access  ########################### */
 119:Drivers/CMSIS/Include/cmsis_gcc.h **** /** \ingroup  CMSIS_Core_FunctionInterface
 120:Drivers/CMSIS/Include/cmsis_gcc.h ****     \defgroup CMSIS_Core_RegAccFunctions CMSIS Core Register Access Functions
 121:Drivers/CMSIS/Include/cmsis_gcc.h ****   @{
 122:Drivers/CMSIS/Include/cmsis_gcc.h ****  */
 123:Drivers/CMSIS/Include/cmsis_gcc.h **** 
 124:Drivers/CMSIS/Include/cmsis_gcc.h **** /**
 125:Drivers/CMSIS/Include/cmsis_gcc.h ****   \brief   Enable IRQ Interrupts
 126:Drivers/CMSIS/Include/cmsis_gcc.h ****   \details Enables IRQ interrupts by clearing the I-bit in the CPSR.
 127:Drivers/CMSIS/Include/cmsis_gcc.h ****            Can only be executed in Privileged modes.
 128:Drivers/CMSIS/Include/cmsis_gcc.h ****  */
 129:Drivers/CMSIS/Include/cmsis_gcc.h **** __STATIC_FORCEINLINE void __enable_irq(void)
 130:Drivers/CMSIS/Include/cmsis_gcc.h **** {
 131:Drivers/CMSIS/Include/cmsis_gcc.h ****   __ASM volatile ("cpsie i" : : : "memory");
 132:Drivers/CMSIS/Include/cmsis_gcc.h **** }
 133:Drivers/CMSIS/Include/cmsis_gcc.h **** 
 134:Drivers/CMSIS/Include/cmsis_gcc.h **** 
 135:Drivers/CMSIS/Include/cmsis_gcc.h **** /**
 136:Drivers/CMSIS/Include/cmsis_gcc.h ****   \brief   Disable IRQ Interrupts
 137:Drivers/CMSIS/Include/cmsis_gcc.h ****   \details Disables IRQ interrupts by setting the I-bit in the CPSR.
 138:Drivers/CMSIS/Include/cmsis_gcc.h ****            Can only be executed in Privileged modes.
 139:Drivers/CMSIS/Include/cmsis_gcc.h ****  */
 140:Drivers/CMSIS/Include/cmsis_gcc.h **** __STATIC_FORCEINLINE void __disable_irq(void)
 721              		.loc 2 140 27 view .LVU97
 722              	.LBB5:
 141:Drivers/CMSIS/Include/cmsis_gcc.h **** {
ARM GAS  /tmp/ccZzrLig.s 			page 25


 142:Drivers/CMSIS/Include/cmsis_gcc.h ****   __ASM volatile ("cpsid i" : : : "memory");
 723              		.loc 2 142 3 view .LVU98
 724              		.syntax unified
 725              	@ 142 "Drivers/CMSIS/Include/cmsis_gcc.h" 1
 726 0000 72B6     		cpsid i
 727              	@ 0 "" 2
 728              		.thumb
 729              		.syntax unified
 730              	.L36:
 731              	.LBE5:
 732              	.LBE4:
 479:Core/Src/main.c ****   while (1)
 733              		.loc 1 479 3 view .LVU99
 480:Core/Src/main.c ****   {
 481:Core/Src/main.c ****   }
 734              		.loc 1 481 3 view .LVU100
 479:Core/Src/main.c ****   while (1)
 735              		.loc 1 479 9 view .LVU101
 736 0002 FEE7     		b	.L36
 737              		.cfi_endproc
 738              	.LFE76:
 740              		.section	.text.SystemClock_Config,"ax",%progbits
 741              		.align	1
 742              		.global	SystemClock_Config
 743              		.syntax unified
 744              		.thumb
 745              		.thumb_func
 747              	SystemClock_Config:
 748              	.LFB74:
 426:Core/Src/main.c ****   RCC_OscInitTypeDef RCC_OscInitStruct = {0};
 749              		.loc 1 426 1 view -0
 750              		.cfi_startproc
 751              		@ args = 0, pretend = 0, frame = 64
 752              		@ frame_needed = 0, uses_anonymous_args = 0
 753 0000 10B5     		push	{r4, lr}
 754              	.LCFI14:
 755              		.cfi_def_cfa_offset 8
 756              		.cfi_offset 4, -8
 757              		.cfi_offset 14, -4
 758 0002 90B0     		sub	sp, sp, #64
 759              	.LCFI15:
 760              		.cfi_def_cfa_offset 72
 427:Core/Src/main.c ****   RCC_ClkInitTypeDef RCC_ClkInitStruct = {0};
 761              		.loc 1 427 3 view .LVU103
 427:Core/Src/main.c ****   RCC_ClkInitTypeDef RCC_ClkInitStruct = {0};
 762              		.loc 1 427 22 is_stmt 0 view .LVU104
 763 0004 06AC     		add	r4, sp, #24
 764 0006 2822     		movs	r2, #40
 765 0008 0021     		movs	r1, #0
 766 000a 2046     		mov	r0, r4
 767 000c FFF7FEFF 		bl	memset
 768              	.LVL68:
 428:Core/Src/main.c **** 
 769              		.loc 1 428 3 is_stmt 1 view .LVU105
 428:Core/Src/main.c **** 
 770              		.loc 1 428 22 is_stmt 0 view .LVU106
 771 0010 0023     		movs	r3, #0
ARM GAS  /tmp/ccZzrLig.s 			page 26


 772 0012 0193     		str	r3, [sp, #4]
 773 0014 0293     		str	r3, [sp, #8]
 774 0016 0393     		str	r3, [sp, #12]
 775 0018 0493     		str	r3, [sp, #16]
 776 001a 0593     		str	r3, [sp, #20]
 433:Core/Src/main.c ****   RCC_OscInitStruct.HSEState = RCC_HSE_ON;
 777              		.loc 1 433 3 is_stmt 1 view .LVU107
 433:Core/Src/main.c ****   RCC_OscInitStruct.HSEState = RCC_HSE_ON;
 778              		.loc 1 433 36 is_stmt 0 view .LVU108
 779 001c 0122     		movs	r2, #1
 780 001e 0692     		str	r2, [sp, #24]
 434:Core/Src/main.c ****   RCC_OscInitStruct.HSEPredivValue = RCC_HSE_PREDIV_DIV1;
 781              		.loc 1 434 3 is_stmt 1 view .LVU109
 434:Core/Src/main.c ****   RCC_OscInitStruct.HSEPredivValue = RCC_HSE_PREDIV_DIV1;
 782              		.loc 1 434 30 is_stmt 0 view .LVU110
 783 0020 4FF48033 		mov	r3, #65536
 784 0024 0793     		str	r3, [sp, #28]
 435:Core/Src/main.c ****   RCC_OscInitStruct.HSIState = RCC_HSI_ON;
 785              		.loc 1 435 3 is_stmt 1 view .LVU111
 436:Core/Src/main.c ****   RCC_OscInitStruct.PLL.PLLState = RCC_PLL_ON;
 786              		.loc 1 436 3 view .LVU112
 436:Core/Src/main.c ****   RCC_OscInitStruct.PLL.PLLState = RCC_PLL_ON;
 787              		.loc 1 436 30 is_stmt 0 view .LVU113
 788 0026 0A92     		str	r2, [sp, #40]
 437:Core/Src/main.c ****   RCC_OscInitStruct.PLL.PLLSource = RCC_PLLSOURCE_HSE;
 789              		.loc 1 437 3 is_stmt 1 view .LVU114
 437:Core/Src/main.c ****   RCC_OscInitStruct.PLL.PLLSource = RCC_PLLSOURCE_HSE;
 790              		.loc 1 437 34 is_stmt 0 view .LVU115
 791 0028 0222     		movs	r2, #2
 792 002a 0D92     		str	r2, [sp, #52]
 438:Core/Src/main.c ****   RCC_OscInitStruct.PLL.PLLMUL = RCC_PLL_MUL9;
 793              		.loc 1 438 3 is_stmt 1 view .LVU116
 438:Core/Src/main.c ****   RCC_OscInitStruct.PLL.PLLMUL = RCC_PLL_MUL9;
 794              		.loc 1 438 35 is_stmt 0 view .LVU117
 795 002c 0E93     		str	r3, [sp, #56]
 439:Core/Src/main.c ****   if (HAL_RCC_OscConfig(&RCC_OscInitStruct) != HAL_OK)
 796              		.loc 1 439 3 is_stmt 1 view .LVU118
 439:Core/Src/main.c ****   if (HAL_RCC_OscConfig(&RCC_OscInitStruct) != HAL_OK)
 797              		.loc 1 439 32 is_stmt 0 view .LVU119
 798 002e 4FF4E013 		mov	r3, #1835008
 799 0032 0F93     		str	r3, [sp, #60]
 440:Core/Src/main.c ****   {
 800              		.loc 1 440 3 is_stmt 1 view .LVU120
 440:Core/Src/main.c ****   {
 801              		.loc 1 440 7 is_stmt 0 view .LVU121
 802 0034 2046     		mov	r0, r4
 803 0036 FFF7FEFF 		bl	HAL_RCC_OscConfig
 804              	.LVL69:
 440:Core/Src/main.c ****   {
 805              		.loc 1 440 6 discriminator 1 view .LVU122
 806 003a 78B9     		cbnz	r0, .L41
 447:Core/Src/main.c ****                               |RCC_CLOCKTYPE_PCLK1|RCC_CLOCKTYPE_PCLK2;
 807              		.loc 1 447 3 is_stmt 1 view .LVU123
 447:Core/Src/main.c ****                               |RCC_CLOCKTYPE_PCLK1|RCC_CLOCKTYPE_PCLK2;
 808              		.loc 1 447 31 is_stmt 0 view .LVU124
 809 003c 0F23     		movs	r3, #15
 810 003e 0193     		str	r3, [sp, #4]
ARM GAS  /tmp/ccZzrLig.s 			page 27


 449:Core/Src/main.c ****   RCC_ClkInitStruct.AHBCLKDivider = RCC_SYSCLK_DIV1;
 811              		.loc 1 449 3 is_stmt 1 view .LVU125
 449:Core/Src/main.c ****   RCC_ClkInitStruct.AHBCLKDivider = RCC_SYSCLK_DIV1;
 812              		.loc 1 449 34 is_stmt 0 view .LVU126
 813 0040 0221     		movs	r1, #2
 814 0042 0291     		str	r1, [sp, #8]
 450:Core/Src/main.c ****   RCC_ClkInitStruct.APB1CLKDivider = RCC_HCLK_DIV2;
 815              		.loc 1 450 3 is_stmt 1 view .LVU127
 450:Core/Src/main.c ****   RCC_ClkInitStruct.APB1CLKDivider = RCC_HCLK_DIV2;
 816              		.loc 1 450 35 is_stmt 0 view .LVU128
 817 0044 0023     		movs	r3, #0
 818 0046 0393     		str	r3, [sp, #12]
 451:Core/Src/main.c ****   RCC_ClkInitStruct.APB2CLKDivider = RCC_HCLK_DIV1;
 819              		.loc 1 451 3 is_stmt 1 view .LVU129
 451:Core/Src/main.c ****   RCC_ClkInitStruct.APB2CLKDivider = RCC_HCLK_DIV1;
 820              		.loc 1 451 36 is_stmt 0 view .LVU130
 821 0048 4FF48062 		mov	r2, #1024
 822 004c 0492     		str	r2, [sp, #16]
 452:Core/Src/main.c **** 
 823              		.loc 1 452 3 is_stmt 1 view .LVU131
 452:Core/Src/main.c **** 
 824              		.loc 1 452 36 is_stmt 0 view .LVU132
 825 004e 0593     		str	r3, [sp, #20]
 454:Core/Src/main.c ****   {
 826              		.loc 1 454 3 is_stmt 1 view .LVU133
 454:Core/Src/main.c ****   {
 827              		.loc 1 454 7 is_stmt 0 view .LVU134
 828 0050 01A8     		add	r0, sp, #4
 829 0052 FFF7FEFF 		bl	HAL_RCC_ClockConfig
 830              	.LVL70:
 454:Core/Src/main.c ****   {
 831              		.loc 1 454 6 discriminator 1 view .LVU135
 832 0056 18B9     		cbnz	r0, .L42
 458:Core/Src/main.c **** 
 833              		.loc 1 458 1 view .LVU136
 834 0058 10B0     		add	sp, sp, #64
 835              	.LCFI16:
 836              		.cfi_remember_state
 837              		.cfi_def_cfa_offset 8
 838              		@ sp needed
 839 005a 10BD     		pop	{r4, pc}
 840              	.L41:
 841              	.LCFI17:
 842              		.cfi_restore_state
 442:Core/Src/main.c ****   }
 843              		.loc 1 442 5 is_stmt 1 view .LVU137
 844 005c FFF7FEFF 		bl	Error_Handler
 845              	.LVL71:
 846              	.L42:
 456:Core/Src/main.c ****   }
 847              		.loc 1 456 5 view .LVU138
 848 0060 FFF7FEFF 		bl	Error_Handler
 849              	.LVL72:
 850              		.cfi_endproc
 851              	.LFE74:
 853              		.section	.rodata.main.str1.4,"aMS",%progbits,1
 854              		.align	2
ARM GAS  /tmp/ccZzrLig.s 			page 28


 855              	.LC5:
 856 0000 53746172 		.ascii	"Startup...\000"
 856      7475702E 
 856      2E2E00
 857 000b 00       		.align	2
 858              	.LC6:
 859 000c 4C6F5261 		.ascii	"LoRa OK!\000"
 859      204F4B21 
 859      00
 860 0015 000000   		.align	2
 861              	.LC7:
 862 0018 4C6F5261 		.ascii	"LoRa not found, check wiring!\000"
 862      206E6F74 
 862      20666F75 
 862      6E642C20 
 862      63686563 
 863 0036 0000     		.align	2
 864              	.LC8:
 865 0038 53657475 		.ascii	"Setup is not correct..\000"
 865      70206973 
 865      206E6F74 
 865      20636F72 
 865      72656374 
 866 004f 00       		.align	2
 867              	.LC9:
 868 0050 53656E74 		.ascii	"Sent\000"
 868      00
 869 0055 000000   		.align	2
 870              	.LC10:
 871 0058 5363616E 		.ascii	"Scanning...\000"
 871      6E696E67 
 871      2E2E2E00 
 872              		.align	2
 873              	.LC11:
 874 0064 5363616E 		.ascii	"Scan done\000"
 874      20646F6E 
 874      6500
 875 006e 0000     		.align	2
 876              	.LC12:
 877 0070 5258204C 		.ascii	"RX Location\000"
 877      6F636174 
 877      696F6E00 
 878              		.section	.text.main,"ax",%progbits
 879              		.align	1
 880              		.global	main
 881              		.syntax unified
 882              		.thumb
 883              		.thumb_func
 885              	main:
 886              	.LFB69:
  93:Core/Src/main.c **** 
 887              		.loc 1 93 1 view -0
 888              		.cfi_startproc
 889              		@ args = 0, pretend = 0, frame = 344
 890              		@ frame_needed = 0, uses_anonymous_args = 0
 891 0000 30B5     		push	{r4, r5, lr}
 892              	.LCFI18:
ARM GAS  /tmp/ccZzrLig.s 			page 29


 893              		.cfi_def_cfa_offset 12
 894              		.cfi_offset 4, -12
 895              		.cfi_offset 5, -8
 896              		.cfi_offset 14, -4
 897 0002 D9B0     		sub	sp, sp, #356
 898              	.LCFI19:
 899              		.cfi_def_cfa_offset 368
 102:Core/Src/main.c **** 
 900              		.loc 1 102 3 view .LVU140
 901 0004 FFF7FEFF 		bl	HAL_Init
 902              	.LVL73:
 109:Core/Src/main.c **** 
 903              		.loc 1 109 3 view .LVU141
 904 0008 FFF7FEFF 		bl	SystemClock_Config
 905              	.LVL74:
 116:Core/Src/main.c ****   MX_USART2_UART_Init();
 906              		.loc 1 116 3 view .LVU142
 907 000c FFF7FEFF 		bl	MX_GPIO_Init
 908              	.LVL75:
 117:Core/Src/main.c ****   MX_SPI1_Init();
 909              		.loc 1 117 3 view .LVU143
 910 0010 FFF7FEFF 		bl	MX_USART2_UART_Init
 911              	.LVL76:
 118:Core/Src/main.c ****   MX_I2C1_Init();
 912              		.loc 1 118 3 view .LVU144
 913 0014 FFF7FEFF 		bl	MX_SPI1_Init
 914              	.LVL77:
 119:Core/Src/main.c ****   MX_USART1_UART_Init();
 915              		.loc 1 119 3 view .LVU145
 916 0018 FFF7FEFF 		bl	MX_I2C1_Init
 917              	.LVL78:
 120:Core/Src/main.c ****   /* USER CODE BEGIN 2 */
 918              		.loc 1 120 3 view .LVU146
 919 001c FFF7FEFF 		bl	MX_USART1_UART_Init
 920              	.LVL79:
 127:Core/Src/main.c ****     
 921              		.loc 1 127 1 view .LVU147
 922 0020 FFF7FEFF 		bl	ssd1306_Init
 923              	.LVL80:
 130:Core/Src/main.c ****     
 924              		.loc 1 130 1 view .LVU148
 925 0024 0020     		movs	r0, #0
 926 0026 FFF7FEFF 		bl	ssd1306_Fill
 927              	.LVL81:
 133:Core/Src/main.c **** ssd1306_WriteString("Startup...", Font_11x18, White);
 928              		.loc 1 133 1 view .LVU149
 929 002a 1021     		movs	r1, #16
 930 002c 0846     		mov	r0, r1
 931 002e FFF7FEFF 		bl	ssd1306_SetCursor
 932              	.LVL82:
 134:Core/Src/main.c **** 
 933              		.loc 1 134 1 view .LVU150
 934 0032 864B     		ldr	r3, .L62
 935 0034 0124     		movs	r4, #1
 936 0036 0094     		str	r4, [sp]
 937 0038 0ECB     		ldm	r3, {r1, r2, r3}
 938 003a 8548     		ldr	r0, .L62+4
ARM GAS  /tmp/ccZzrLig.s 			page 30


 939 003c FFF7FEFF 		bl	ssd1306_WriteString
 940              	.LVL83:
 137:Core/Src/main.c **** HAL_Delay(500);
 941              		.loc 1 137 1 view .LVU151
 942 0040 FFF7FEFF 		bl	ssd1306_UpdateScreen
 943              	.LVL84:
 138:Core/Src/main.c **** ssd1306_Fill(Black);
 944              		.loc 1 138 1 view .LVU152
 945 0044 4FF4FA70 		mov	r0, #500
 946 0048 FFF7FEFF 		bl	HAL_Delay
 947              	.LVL85:
 139:Core/Src/main.c **** 
 948              		.loc 1 139 1 view .LVU153
 949 004c 0020     		movs	r0, #0
 950 004e FFF7FEFF 		bl	ssd1306_Fill
 951              	.LVL86:
 144:Core/Src/main.c **** lora.CS_pin		= NSS_Pin;
 952              		.loc 1 144 1 view .LVU154
 144:Core/Src/main.c **** lora.CS_pin		= NSS_Pin;
 953              		.loc 1 144 15 is_stmt 0 view .LVU155
 954 0052 8048     		ldr	r0, .L62+8
 955 0054 804B     		ldr	r3, .L62+12
 956 0056 0360     		str	r3, [r0]
 145:Core/Src/main.c **** lora.reset_port		= LoRa_RST_GPIO_Port;
 957              		.loc 1 145 1 is_stmt 1 view .LVU156
 145:Core/Src/main.c **** lora.reset_port		= LoRa_RST_GPIO_Port;
 958              		.loc 1 145 14 is_stmt 0 view .LVU157
 959 0058 1022     		movs	r2, #16
 960 005a 8280     		strh	r2, [r0, #4]	@ movhi
 146:Core/Src/main.c **** lora.reset_pin		= LoRa_RST_Pin;
 961              		.loc 1 146 1 is_stmt 1 view .LVU158
 146:Core/Src/main.c **** lora.reset_pin		= LoRa_RST_Pin;
 962              		.loc 1 146 18 is_stmt 0 view .LVU159
 963 005c 8360     		str	r3, [r0, #8]
 147:Core/Src/main.c **** lora.DIO0_port		= DIO0_GPIO_Port;
 964              		.loc 1 147 1 is_stmt 1 view .LVU160
 147:Core/Src/main.c **** lora.DIO0_port		= DIO0_GPIO_Port;
 965              		.loc 1 147 17 is_stmt 0 view .LVU161
 966 005e 4FF48072 		mov	r2, #256
 967 0062 8281     		strh	r2, [r0, #12]	@ movhi
 148:Core/Src/main.c **** lora.DIO0_pin		= DIO0_Pin;
 968              		.loc 1 148 1 is_stmt 1 view .LVU162
 148:Core/Src/main.c **** lora.DIO0_pin		= DIO0_Pin;
 969              		.loc 1 148 17 is_stmt 0 view .LVU163
 970 0064 0361     		str	r3, [r0, #16]
 149:Core/Src/main.c **** lora.hSPIx		= &hspi1;
 971              		.loc 1 149 1 is_stmt 1 view .LVU164
 149:Core/Src/main.c **** lora.hSPIx		= &hspi1;
 972              		.loc 1 149 16 is_stmt 0 view .LVU165
 973 0066 8482     		strh	r4, [r0, #20]	@ movhi
 150:Core/Src/main.c **** 
 974              		.loc 1 150 1 is_stmt 1 view .LVU166
 150:Core/Src/main.c **** 
 975              		.loc 1 150 13 is_stmt 0 view .LVU167
 976 0068 7C4B     		ldr	r3, .L62+16
 977 006a 8361     		str	r3, [r0, #24]
 152:Core/Src/main.c **** uint16_t	status = LoRa_init(&lora);
ARM GAS  /tmp/ccZzrLig.s 			page 31


 978              		.loc 1 152 1 is_stmt 1 view .LVU168
 153:Core/Src/main.c **** 
 979              		.loc 1 153 1 view .LVU169
 153:Core/Src/main.c **** 
 980              		.loc 1 153 19 is_stmt 0 view .LVU170
 981 006c FFF7FEFF 		bl	LoRa_init
 982              	.LVL87:
 983 0070 0446     		mov	r4, r0
 984              	.LVL88:
 155:Core/Src/main.c **** 
 985              		.loc 1 155 1 is_stmt 1 view .LVU171
 986 0072 C822     		movs	r2, #200
 987 0074 0021     		movs	r1, #0
 988 0076 26A8     		add	r0, sp, #152
 989 0078 FFF7FEFF 		bl	memset
 990              	.LVL89:
 157:Core/Src/main.c **** 	{
 991              		.loc 1 157 1 view .LVU172
 157:Core/Src/main.c **** 	{
 992              		.loc 1 157 4 is_stmt 0 view .LVU173
 993 007c C82C     		cmp	r4, #200
 994 007e 65D0     		beq	.L55
 170:Core/Src/main.c **** 	{
 995              		.loc 1 170 6 is_stmt 1 view .LVU174
 170:Core/Src/main.c **** 	{
 996              		.loc 1 170 9 is_stmt 0 view .LVU175
 997 0080 B4F5CA7F 		cmp	r4, #404
 998 0084 74D0     		beq	.L56
 177:Core/Src/main.c **** 	{
 999              		.loc 1 177 6 is_stmt 1 view .LVU176
 177:Core/Src/main.c **** 	{
 1000              		.loc 1 177 9 is_stmt 0 view .LVU177
 1001 0086 40F2F713 		movw	r3, #503
 1002 008a 9C42     		cmp	r4, r3
 1003 008c 7ED0     		beq	.L57
 1004              	.L45:
 188:Core/Src/main.c **** lora.spredingFactor = SF_9;
 1005              		.loc 1 188 1 is_stmt 1 view .LVU178
 188:Core/Src/main.c **** lora.spredingFactor = SF_9;
 1006              		.loc 1 188 21 is_stmt 0 view .LVU179
 1007 008e 714B     		ldr	r3, .L62+8
 1008 0090 4FF4D972 		mov	r2, #434
 1009 0094 1A62     		str	r2, [r3, #32]
 189:Core/Src/main.c **** lora.bandWidth      = BW_250KHz;
 1010              		.loc 1 189 1 is_stmt 1 view .LVU180
 189:Core/Src/main.c **** lora.bandWidth      = BW_250KHz;
 1011              		.loc 1 189 21 is_stmt 0 view .LVU181
 1012 0096 0922     		movs	r2, #9
 1013 0098 83F82420 		strb	r2, [r3, #36]
 190:Core/Src/main.c **** lora.crcRate        = CR_4_8;
 1014              		.loc 1 190 1 is_stmt 1 view .LVU182
 190:Core/Src/main.c **** lora.crcRate        = CR_4_8;
 1015              		.loc 1 190 21 is_stmt 0 view .LVU183
 1016 009c 0822     		movs	r2, #8
 1017 009e 83F82520 		strb	r2, [r3, #37]
 191:Core/Src/main.c **** lora.power          = POWER_17db;
 1018              		.loc 1 191 1 is_stmt 1 view .LVU184
ARM GAS  /tmp/ccZzrLig.s 			page 32


 191:Core/Src/main.c **** lora.power          = POWER_17db;
 1019              		.loc 1 191 21 is_stmt 0 view .LVU185
 1020 00a2 0422     		movs	r2, #4
 1021 00a4 83F82620 		strb	r2, [r3, #38]
 192:Core/Src/main.c **** lora.overCurrentProtection = 130;
 1022              		.loc 1 192 1 is_stmt 1 view .LVU186
 192:Core/Src/main.c **** lora.overCurrentProtection = 130;
 1023              		.loc 1 192 21 is_stmt 0 view .LVU187
 1024 00a8 FC22     		movs	r2, #252
 1025 00aa 83F82A20 		strb	r2, [r3, #42]
 193:Core/Src/main.c **** lora.preamble       = 10;
 1026              		.loc 1 193 1 is_stmt 1 view .LVU188
 193:Core/Src/main.c **** lora.preamble       = 10;
 1027              		.loc 1 193 28 is_stmt 0 view .LVU189
 1028 00ae 8222     		movs	r2, #130
 1029 00b0 83F82B20 		strb	r2, [r3, #43]
 194:Core/Src/main.c **** 
 1030              		.loc 1 194 1 is_stmt 1 view .LVU190
 194:Core/Src/main.c **** 
 1031              		.loc 1 194 21 is_stmt 0 view .LVU191
 1032 00b4 0A22     		movs	r2, #10
 1033 00b6 1A85     		strh	r2, [r3, #40]	@ movhi
 198:Core/Src/main.c **** 
 1034              		.loc 1 198 1 is_stmt 1 view .LVU192
 1035 00b8 FFF7FEFF 		bl	GPS_Init
 1036              	.LVL90:
 200:Core/Src/main.c **** {
 1037              		.loc 1 200 1 view .LVU193
 223:Core/Src/main.c **** 
 1038              		.loc 1 223 1 view .LVU194
 225:Core/Src/main.c **** 
 1039              		.loc 1 225 1 view .LVU195
 1040 00bc 06A8     		add	r0, sp, #24
 1041 00be FFF7FEFF 		bl	GPS_parse
 1042              	.LVL91:
 227:Core/Src/main.c **** HAL_Delay(500);
 1043              		.loc 1 227 1 view .LVU196
 1044 00c2 6748     		ldr	r0, .L62+20
 1045 00c4 FFF7FEFF 		bl	GPS_display_status.0
 1046              	.LVL92:
 228:Core/Src/main.c **** 
 1047              		.loc 1 228 1 view .LVU197
 1048 00c8 4FF4FA70 		mov	r0, #500
 1049 00cc FFF7FEFF 		bl	HAL_Delay
 1050              	.LVL93:
 233:Core/Src/main.c **** {
 1051              		.loc 1 233 1 view .LVU198
 262:Core/Src/main.c **** {
 1052              		.loc 1 262 1 view .LVU199
 302:Core/Src/main.c **** {
 1053              		.loc 1 302 1 view .LVU200
 345:Core/Src/main.c **** SCAN_Init();
 1054              		.loc 1 345 1 view .LVU201
 1055 00d0 FFF7FEFF 		bl	COMM_Init
 1056              	.LVL94:
 346:Core/Src/main.c **** bool	scan_was_active = false;
 1057              		.loc 1 346 1 view .LVU202
ARM GAS  /tmp/ccZzrLig.s 			page 33


 1058 00d4 FFF7FEFF 		bl	SCAN_Init
 1059              	.LVL95:
 347:Core/Src/main.c **** main_screen();
 1060              		.loc 1 347 1 view .LVU203
 348:Core/Src/main.c ****   /* Infinite loop */
 1061              		.loc 1 348 1 view .LVU204
 1062 00d8 FFF7FEFF 		bl	main_screen.3
 1063              	.LVL96:
 347:Core/Src/main.c **** main_screen();
 1064              		.loc 1 347 6 is_stmt 0 view .LVU205
 1065 00dc 0024     		movs	r4, #0
 1066              	.LVL97:
 1067              	.L47:
 351:Core/Src/main.c ****   {
 1068              		.loc 1 351 3 is_stmt 1 view .LVU206
 355:Core/Src/main.c **** 	{
 1069              		.loc 1 355 2 view .LVU207
 355:Core/Src/main.c **** 	{
 1070              		.loc 1 355 6 is_stmt 0 view .LVU208
 1071 00de 614B     		ldr	r3, .L62+24
 1072 00e0 1B78     		ldrb	r3, [r3]	@ zero_extendqisi2
 355:Core/Src/main.c **** 	{
 1073              		.loc 1 355 5 view .LVU209
 1074 00e2 002B     		cmp	r3, #0
 1075 00e4 62D1     		bne	.L58
 1076              	.L48:
 365:Core/Src/main.c **** 	{
 1077              		.loc 1 365 2 is_stmt 1 view .LVU210
 365:Core/Src/main.c **** 	{
 1078              		.loc 1 365 6 is_stmt 0 view .LVU211
 1079 00e6 604B     		ldr	r3, .L62+28
 1080 00e8 1B78     		ldrb	r3, [r3]	@ zero_extendqisi2
 365:Core/Src/main.c **** 	{
 1081              		.loc 1 365 5 view .LVU212
 1082 00ea 002B     		cmp	r3, #0
 1083 00ec 6AD1     		bne	.L59
 1084              	.L49:
 378:Core/Src/main.c **** 	SCAN_Process();
 1085              		.loc 1 378 2 is_stmt 1 view .LVU213
 1086 00ee FFF7FEFF 		bl	COMM_Process
 1087              	.LVL98:
 379:Core/Src/main.c **** 
 1088              		.loc 1 379 2 view .LVU214
 1089 00f2 FFF7FEFF 		bl	SCAN_Process
 1090              	.LVL99:
 381:Core/Src/main.c **** 	{
 1091              		.loc 1 381 2 view .LVU215
 381:Core/Src/main.c **** 	{
 1092              		.loc 1 381 6 is_stmt 0 view .LVU216
 1093 00f6 FFF7FEFF 		bl	SCAN_IsActive
 1094              	.LVL100:
 381:Core/Src/main.c **** 	{
 1095              		.loc 1 381 5 discriminator 1 view .LVU217
 1096 00fa 0546     		mov	r5, r0
 1097 00fc 08B1     		cbz	r0, .L50
 381:Core/Src/main.c **** 	{
 1098              		.loc 1 381 22 discriminator 1 view .LVU218
ARM GAS  /tmp/ccZzrLig.s 			page 34


 1099 00fe 002C     		cmp	r4, #0
 1100 0100 7BD0     		beq	.L60
 1101              	.LVL101:
 1102              	.L50:
 390:Core/Src/main.c **** 	{
 1103              		.loc 1 390 2 is_stmt 1 view .LVU219
 390:Core/Src/main.c **** 	{
 1104              		.loc 1 390 7 is_stmt 0 view .LVU220
 1105 0102 FFF7FEFF 		bl	SCAN_IsActive
 1106              	.LVL102:
 390:Core/Src/main.c **** 	{
 1107              		.loc 1 390 5 discriminator 1 view .LVU221
 1108 0106 0546     		mov	r5, r0
 1109 0108 10B9     		cbnz	r0, .L51
 390:Core/Src/main.c **** 	{
 1110              		.loc 1 390 23 discriminator 1 view .LVU222
 1111 010a 002C     		cmp	r4, #0
 1112 010c 40F08780 		bne	.L61
 1113              	.LVL103:
 1114              	.L51:
 401:Core/Src/main.c **** 	{
 1115              		.loc 1 401 2 is_stmt 1 view .LVU223
 401:Core/Src/main.c **** 	{
 1116              		.loc 1 401 6 is_stmt 0 view .LVU224
 1117 0110 FFF7FEFF 		bl	COMM_HasPacket
 1118              	.LVL104:
 401:Core/Src/main.c **** 	{
 1119              		.loc 1 401 5 discriminator 1 view .LVU225
 1120 0114 0028     		cmp	r0, #0
 1121 0116 E2D0     		beq	.L47
 1122              	.LBB6:
 403:Core/Src/main.c **** 		if (COMM_GetPacket(&pkt))
 1123              		.loc 1 403 3 is_stmt 1 view .LVU226
 404:Core/Src/main.c **** 		{
 1124              		.loc 1 404 3 view .LVU227
 404:Core/Src/main.c **** 		{
 1125              		.loc 1 404 7 is_stmt 0 view .LVU228
 1126 0118 02A8     		add	r0, sp, #8
 1127 011a FFF7FEFF 		bl	COMM_GetPacket
 1128              	.LVL105:
 404:Core/Src/main.c **** 		{
 1129              		.loc 1 404 6 discriminator 1 view .LVU229
 1130 011e 0028     		cmp	r0, #0
 1131 0120 DDD0     		beq	.L47
 406:Core/Src/main.c **** 			{
 1132              		.loc 1 406 4 is_stmt 1 view .LVU230
 406:Core/Src/main.c **** 			{
 1133              		.loc 1 406 11 is_stmt 0 view .LVU231
 1134 0122 9DF80830 		ldrb	r3, [sp, #8]	@ zero_extendqisi2
 406:Core/Src/main.c **** 			{
 1135              		.loc 1 406 7 view .LVU232
 1136 0126 012B     		cmp	r3, #1
 1137 0128 D9D1     		bne	.L47
 408:Core/Src/main.c **** 				ssd1306_SetCursor(16,16);
 1138              		.loc 1 408 5 is_stmt 1 view .LVU233
 1139 012a 0020     		movs	r0, #0
 1140 012c FFF7FEFF 		bl	ssd1306_Fill
ARM GAS  /tmp/ccZzrLig.s 			page 35


 1141              	.LVL106:
 409:Core/Src/main.c **** 				ssd1306_WriteString("RX Location", Font_11x18, White);
 1142              		.loc 1 409 5 view .LVU234
 1143 0130 1021     		movs	r1, #16
 1144 0132 0846     		mov	r0, r1
 1145 0134 FFF7FEFF 		bl	ssd1306_SetCursor
 1146              	.LVL107:
 410:Core/Src/main.c **** 				ssd1306_UpdateScreen();
 1147              		.loc 1 410 5 view .LVU235
 1148 0138 444B     		ldr	r3, .L62
 1149 013a 0122     		movs	r2, #1
 1150 013c 0092     		str	r2, [sp]
 1151 013e 0ECB     		ldm	r3, {r1, r2, r3}
 1152 0140 4A48     		ldr	r0, .L62+32
 1153 0142 FFF7FEFF 		bl	ssd1306_WriteString
 1154              	.LVL108:
 411:Core/Src/main.c **** 			}
 1155              		.loc 1 411 5 view .LVU236
 1156 0146 FFF7FEFF 		bl	ssd1306_UpdateScreen
 1157              	.LVL109:
 1158 014a C8E7     		b	.L47
 1159              	.LVL110:
 1160              	.L55:
 411:Core/Src/main.c **** 			}
 1161              		.loc 1 411 5 is_stmt 0 view .LVU237
 1162              	.LBE6:
 165:Core/Src/main.c **** 		ssd1306_WriteString("LoRa OK!", Font_11x18, White);
 1163              		.loc 1 165 3 is_stmt 1 view .LVU238
 1164 014c 1021     		movs	r1, #16
 1165 014e 0846     		mov	r0, r1
 1166 0150 FFF7FEFF 		bl	ssd1306_SetCursor
 1167              	.LVL111:
 166:Core/Src/main.c **** 		ssd1306_UpdateScreen();
 1168              		.loc 1 166 3 view .LVU239
 1169 0154 3D4B     		ldr	r3, .L62
 1170 0156 0122     		movs	r2, #1
 1171 0158 0092     		str	r2, [sp]
 1172 015a 0ECB     		ldm	r3, {r1, r2, r3}
 1173 015c 4448     		ldr	r0, .L62+36
 1174 015e FFF7FEFF 		bl	ssd1306_WriteString
 1175              	.LVL112:
 167:Core/Src/main.c **** 		HAL_Delay(500);
 1176              		.loc 1 167 3 view .LVU240
 1177 0162 FFF7FEFF 		bl	ssd1306_UpdateScreen
 1178              	.LVL113:
 168:Core/Src/main.c **** 	}
 1179              		.loc 1 168 3 view .LVU241
 1180 0166 4FF4FA70 		mov	r0, #500
 1181 016a FFF7FEFF 		bl	HAL_Delay
 1182              	.LVL114:
 1183 016e 8EE7     		b	.L45
 1184              	.L56:
 173:Core/Src/main.c **** 		ssd1306_UpdateScreen();
 1185              		.loc 1 173 3 view .LVU242
 1186 0170 364B     		ldr	r3, .L62
 1187 0172 0122     		movs	r2, #1
 1188 0174 0092     		str	r2, [sp]
ARM GAS  /tmp/ccZzrLig.s 			page 36


 1189 0176 0ECB     		ldm	r3, {r1, r2, r3}
 1190 0178 3E48     		ldr	r0, .L62+40
 1191 017a FFF7FEFF 		bl	ssd1306_WriteString
 1192              	.LVL115:
 174:Core/Src/main.c **** 		HAL_Delay(500);
 1193              		.loc 1 174 3 view .LVU243
 1194 017e FFF7FEFF 		bl	ssd1306_UpdateScreen
 1195              	.LVL116:
 175:Core/Src/main.c **** 	}
 1196              		.loc 1 175 3 view .LVU244
 1197 0182 4FF4FA70 		mov	r0, #500
 1198 0186 FFF7FEFF 		bl	HAL_Delay
 1199              	.LVL117:
 1200 018a 80E7     		b	.L45
 1201              	.L57:
 180:Core/Src/main.c **** 		ssd1306_UpdateScreen();
 1202              		.loc 1 180 3 view .LVU245
 1203 018c 2F4B     		ldr	r3, .L62
 1204 018e 0122     		movs	r2, #1
 1205 0190 0092     		str	r2, [sp]
 1206 0192 0ECB     		ldm	r3, {r1, r2, r3}
 1207 0194 3848     		ldr	r0, .L62+44
 1208 0196 FFF7FEFF 		bl	ssd1306_WriteString
 1209              	.LVL118:
 181:Core/Src/main.c **** 		ssd1306_UpdateScreen();
 1210              		.loc 1 181 3 view .LVU246
 1211 019a FFF7FEFF 		bl	ssd1306_UpdateScreen
 1212              	.LVL119:
 182:Core/Src/main.c **** 		HAL_Delay(500);
 1213              		.loc 1 182 3 view .LVU247
 1214 019e FFF7FEFF 		bl	ssd1306_UpdateScreen
 1215              	.LVL120:
 183:Core/Src/main.c **** 
 1216              		.loc 1 183 3 view .LVU248
 1217 01a2 4FF4FA70 		mov	r0, #500
 1218 01a6 FFF7FEFF 		bl	HAL_Delay
 1219              	.LVL121:
 1220 01aa 70E7     		b	.L45
 1221              	.LVL122:
 1222              	.L58:
 357:Core/Src/main.c **** 		scan_mode();
 1223              		.loc 1 357 3 view .LVU249
 357:Core/Src/main.c **** 		scan_mode();
 1224              		.loc 1 357 20 is_stmt 0 view .LVU250
 1225 01ac 2D4B     		ldr	r3, .L62+24
 1226 01ae 0022     		movs	r2, #0
 1227 01b0 1A70     		strb	r2, [r3]
 358:Core/Src/main.c **** 
 1228              		.loc 1 358 3 is_stmt 1 view .LVU251
 1229 01b2 FFF7FEFF 		bl	scan_mode.1
 1230              	.LVL123:
 360:Core/Src/main.c **** 			SCAN_Start();
 1231              		.loc 1 360 3 view .LVU252
 360:Core/Src/main.c **** 			SCAN_Start();
 1232              		.loc 1 360 8 is_stmt 0 view .LVU253
 1233 01b6 FFF7FEFF 		bl	SCAN_IsActive
 1234              	.LVL124:
ARM GAS  /tmp/ccZzrLig.s 			page 37


 360:Core/Src/main.c **** 			SCAN_Start();
 1235              		.loc 1 360 6 discriminator 1 view .LVU254
 1236 01ba 0028     		cmp	r0, #0
 1237 01bc 93D1     		bne	.L48
 361:Core/Src/main.c **** 	
 1238              		.loc 1 361 4 is_stmt 1 view .LVU255
 1239 01be FFF7FEFF 		bl	SCAN_Start
 1240              	.LVL125:
 1241 01c2 90E7     		b	.L48
 1242              	.L59:
 368:Core/Src/main.c **** 		send_mode();
 1243              		.loc 1 368 3 view .LVU256
 368:Core/Src/main.c **** 		send_mode();
 1244              		.loc 1 368 20 is_stmt 0 view .LVU257
 1245 01c4 0025     		movs	r5, #0
 1246 01c6 284B     		ldr	r3, .L62+28
 1247 01c8 1D70     		strb	r5, [r3]
 369:Core/Src/main.c **** 		COMM_SendLocation(44.18f, 44.51f, 0x01);
 1248              		.loc 1 369 3 is_stmt 1 view .LVU258
 1249 01ca FFF7FEFF 		bl	send_mode.2
 1250              	.LVL126:
 370:Core/Src/main.c **** 
 1251              		.loc 1 370 3 view .LVU259
 1252 01ce 0122     		movs	r2, #1
 1253 01d0 2A49     		ldr	r1, .L62+48
 1254 01d2 2B48     		ldr	r0, .L62+52
 1255 01d4 FFF7FEFF 		bl	COMM_SendLocation
 1256              	.LVL127:
 372:Core/Src/main.c **** 		ssd1306_SetCursor(16,16);
 1257              		.loc 1 372 3 view .LVU260
 1258 01d8 2846     		mov	r0, r5
 1259 01da FFF7FEFF 		bl	ssd1306_Fill
 1260              	.LVL128:
 373:Core/Src/main.c **** 		ssd1306_WriteString("Sent", Font_11x18, White);
 1261              		.loc 1 373 3 view .LVU261
 1262 01de 1021     		movs	r1, #16
 1263 01e0 0846     		mov	r0, r1
 1264 01e2 FFF7FEFF 		bl	ssd1306_SetCursor
 1265              	.LVL129:
 374:Core/Src/main.c **** 		ssd1306_UpdateScreen();
 1266              		.loc 1 374 3 view .LVU262
 1267 01e6 194B     		ldr	r3, .L62
 1268 01e8 0122     		movs	r2, #1
 1269 01ea 0092     		str	r2, [sp]
 1270 01ec 0ECB     		ldm	r3, {r1, r2, r3}
 1271 01ee 2548     		ldr	r0, .L62+56
 1272 01f0 FFF7FEFF 		bl	ssd1306_WriteString
 1273              	.LVL130:
 375:Core/Src/main.c **** 	}
 1274              		.loc 1 375 3 view .LVU263
 1275 01f4 FFF7FEFF 		bl	ssd1306_UpdateScreen
 1276              	.LVL131:
 1277 01f8 79E7     		b	.L49
 1278              	.L60:
 383:Core/Src/main.c **** 
 1279              		.loc 1 383 3 view .LVU264
 1280              	.LVL132:
ARM GAS  /tmp/ccZzrLig.s 			page 38


 385:Core/Src/main.c ****         	ssd1306_SetCursor(16, 16);
 1281              		.loc 1 385 3 view .LVU265
 1282 01fa 0020     		movs	r0, #0
 1283 01fc FFF7FEFF 		bl	ssd1306_Fill
 1284              	.LVL133:
 386:Core/Src/main.c **** 		ssd1306_WriteString("Scanning...", Font_11x18, White);
 1285              		.loc 1 386 10 view .LVU266
 1286 0200 1021     		movs	r1, #16
 1287 0202 0846     		mov	r0, r1
 1288 0204 FFF7FEFF 		bl	ssd1306_SetCursor
 1289              	.LVL134:
 387:Core/Src/main.c ****         	ssd1306_UpdateScreen();
 1290              		.loc 1 387 3 view .LVU267
 1291 0208 104B     		ldr	r3, .L62
 1292 020a 0122     		movs	r2, #1
 1293 020c 0092     		str	r2, [sp]
 1294 020e 0ECB     		ldm	r3, {r1, r2, r3}
 1295 0210 1D48     		ldr	r0, .L62+60
 1296 0212 FFF7FEFF 		bl	ssd1306_WriteString
 1297              	.LVL135:
 388:Core/Src/main.c **** 	}
 1298              		.loc 1 388 10 view .LVU268
 1299 0216 FFF7FEFF 		bl	ssd1306_UpdateScreen
 1300              	.LVL136:
 383:Core/Src/main.c **** 
 1301              		.loc 1 383 19 is_stmt 0 view .LVU269
 1302 021a 2C46     		mov	r4, r5
 1303 021c 71E7     		b	.L50
 1304              	.LVL137:
 1305              	.L61:
 392:Core/Src/main.c **** 		ssd1306_Fill(Black);
 1306              		.loc 1 392 3 is_stmt 1 view .LVU270
 393:Core/Src/main.c ****         	ssd1306_SetCursor(16, 16);
 1307              		.loc 1 393 3 view .LVU271
 1308 021e FFF7FEFF 		bl	ssd1306_Fill
 1309              	.LVL138:
 394:Core/Src/main.c **** 		ssd1306_WriteString("Scan done", Font_11x18, White);
 1310              		.loc 1 394 10 view .LVU272
 1311 0222 1021     		movs	r1, #16
 1312 0224 0846     		mov	r0, r1
 1313 0226 FFF7FEFF 		bl	ssd1306_SetCursor
 1314              	.LVL139:
 395:Core/Src/main.c ****         	ssd1306_UpdateScreen();
 1315              		.loc 1 395 3 view .LVU273
 1316 022a 084B     		ldr	r3, .L62
 1317 022c 0122     		movs	r2, #1
 1318 022e 0092     		str	r2, [sp]
 1319 0230 0ECB     		ldm	r3, {r1, r2, r3}
 1320 0232 1648     		ldr	r0, .L62+64
 1321 0234 FFF7FEFF 		bl	ssd1306_WriteString
 1322              	.LVL140:
 396:Core/Src/main.c **** 		HAL_Delay(500);
 1323              		.loc 1 396 10 view .LVU274
 1324 0238 FFF7FEFF 		bl	ssd1306_UpdateScreen
 1325              	.LVL141:
 397:Core/Src/main.c **** 		main_screen();
 1326              		.loc 1 397 3 view .LVU275
ARM GAS  /tmp/ccZzrLig.s 			page 39


 1327 023c 4FF4FA70 		mov	r0, #500
 1328 0240 FFF7FEFF 		bl	HAL_Delay
 1329              	.LVL142:
 398:Core/Src/main.c **** 	}
 1330              		.loc 1 398 3 view .LVU276
 1331 0244 FFF7FEFF 		bl	main_screen.3
 1332              	.LVL143:
 392:Core/Src/main.c **** 		ssd1306_Fill(Black);
 1333              		.loc 1 392 19 is_stmt 0 view .LVU277
 1334 0248 2C46     		mov	r4, r5
 1335 024a 61E7     		b	.L51
 1336              	.L63:
 1337              		.align	2
 1338              	.L62:
 1339 024c 00000000 		.word	Font_11x18
 1340 0250 00000000 		.word	.LC5
 1341 0254 00000000 		.word	lora
 1342 0258 00080140 		.word	1073809408
 1343 025c 00000000 		.word	hspi1
 1344 0260 00000000 		.word	gps
 1345 0264 00000000 		.word	scan_btn_pressed
 1346 0268 00000000 		.word	send_btn_pressed
 1347 026c 70000000 		.word	.LC12
 1348 0270 0C000000 		.word	.LC6
 1349 0274 18000000 		.word	.LC7
 1350 0278 38000000 		.word	.LC8
 1351 027c 3D0A3242 		.word	1110575677
 1352 0280 52B83042 		.word	1110489170
 1353 0284 50000000 		.word	.LC9
 1354 0288 58000000 		.word	.LC10
 1355 028c 64000000 		.word	.LC11
 1356              		.cfi_endproc
 1357              	.LFE69:
 1359              		.global	send_btn_pressed
 1360              		.section	.bss.send_btn_pressed,"aw",%nobits
 1363              	send_btn_pressed:
 1364 0000 00       		.space	1
 1365              		.global	scan_btn_pressed
 1366              		.section	.bss.scan_btn_pressed,"aw",%nobits
 1369              	scan_btn_pressed:
 1370 0000 00       		.space	1
 1371              		.global	gps
 1372              		.section	.bss.gps,"aw",%nobits
 1373              		.align	2
 1376              	gps:
 1377 0000 00000000 		.space	88
 1377      00000000 
 1377      00000000 
 1377      00000000 
 1377      00000000 
 1378              		.global	lora
 1379              		.section	.bss.lora,"aw",%nobits
 1380              		.align	2
 1383              	lora:
 1384 0000 00000000 		.space	44
 1384      00000000 
 1384      00000000 
ARM GAS  /tmp/ccZzrLig.s 			page 40


 1384      00000000 
 1384      00000000 
 1385              		.text
 1386              	.Letext0:
 1387              		.file 3 "/usr/arm-none-eabi/include/machine/_default_types.h"
 1388              		.file 4 "/usr/arm-none-eabi/include/sys/_stdint.h"
 1389              		.file 5 "Drivers/CMSIS/Device/ST/STM32F1xx/Include/stm32f103xb.h"
 1390              		.file 6 "Drivers/STM32F1xx_HAL_Driver/Inc/stm32f1xx_hal_def.h"
 1391              		.file 7 "Drivers/STM32F1xx_HAL_Driver/Inc/stm32f1xx_hal_rcc.h"
 1392              		.file 8 "Drivers/STM32F1xx_HAL_Driver/Inc/stm32f1xx_hal_rcc_ex.h"
 1393              		.file 9 "Drivers/STM32F1xx_HAL_Driver/Inc/stm32f1xx_hal_dma.h"
 1394              		.file 10 "Drivers/STM32F1xx_HAL_Driver/Inc/stm32f1xx_hal_spi.h"
 1395              		.file 11 "Drivers/STM32F1xx_HAL_Driver/Inc/stm32f1xx_hal_uart.h"
 1396              		.file 12 "Core/Inc/spi.h"
 1397              		.file 13 "Core/Inc/usart.h"
 1398              		.file 14 "Drivers/LoRa/LoRa.h"
 1399              		.file 15 "Drivers/GPS/gps.h"
 1400              		.file 16 "Drivers/OLED/ssd1306.h"
 1401              		.file 17 "Drivers/OLED/ssd1306_fonts.h"
 1402              		.file 18 "APP/../APP/comm.h"
 1403              		.file 19 "APP/../APP/scan.h"
 1404              		.file 20 "/usr/arm-none-eabi/include/string.h"
 1405              		.file 21 "Drivers/STM32F1xx_HAL_Driver/Inc/stm32f1xx_hal.h"
 1406              		.file 22 "Core/Inc/i2c.h"
 1407              		.file 23 "Core/Inc/gpio.h"
 1408              		.file 24 "<built-in>"
ARM GAS  /tmp/ccZzrLig.s 			page 41

